EXPORTS 
	?$TSS0@?1???$?9$$CBVStruct@data@matlab@@@?$TypedIterator@$$CBVStruct@data@matlab@@@data@matlab@@QEBA_NAEBV123@@Z@4HA 	 DATA
	?$TSS0@?1???$?E$$CBVStruct@data@matlab@@@?$TypedIterator@$$CBVStruct@data@matlab@@@data@matlab@@QEAAAEAV123@XZ@4HA 	 DATA
	?$TSS0@?1???$castTo@V?$TypedArray@C@data@matlab@@$00@detail@data@matlab@@YA?AV?$TypedArray@C@23@V?$shared_ptr@VReferenceImpl@detail@data@matlab@@@std@@@Z@4HA 	 DATA
	?$TSS0@?1???$castTo@V?$TypedArray@I@data@matlab@@$00@detail@data@matlab@@YA?AV?$TypedArray@I@23@V?$shared_ptr@VReferenceImpl@detail@data@matlab@@@std@@@Z@4HA 	 DATA
	?$TSS0@?1???$castTo@V?$TypedArray@N@data@matlab@@$00@detail@data@matlab@@YA?AV?$TypedArray@N@23@V?$shared_ptr@VReferenceImpl@detail@data@matlab@@@std@@@Z@4HA 	 DATA
	?$TSS0@?1???$castTo@V?$TypedArray@VArray@data@matlab@@@data@matlab@@$00@detail@data@matlab@@YA?AV?$TypedArray@VArray@data@matlab@@@23@V?$shared_ptr@VReferenceImpl@detail@data@matlab@@@std@@@Z@4HA 	 DATA
	?$TSS0@?1???$castTo@VCharArray@data@matlab@@$00@detail@data@matlab@@YA?AVCharArray@23@V?$shared_ptr@VReferenceImpl@detail@data@matlab@@@std@@@Z@4HA 	 DATA
	?$TSS0@?1???$castTo@VStructArray@data@matlab@@$00@detail@data@matlab@@YA?AVStructArray@23@V?$shared_ptr@VReferenceImpl@detail@data@matlab@@@std@@@Z@4HA 	 DATA
	?$TSS0@?1???$createArray@VArray@data@matlab@@@ArrayFactory@data@matlab@@QEAA?AV?$TypedArray@VArray@data@matlab@@@23@V?$vector@_KV?$allocator@_K@std@@@std@@@Z@4HA 	 DATA
	?$TSS0@?1???$createArrayWithIterator@V?$_Vector_const_iterator@V?$_Vector_val@U?$_Simple_types@N@std@@@std@@@std@@N@detail@data@matlab@@YA?AV?$TypedArray@N@23@PEAVArrayFactoryImpl@impl@23@V?$vector@_KV?$allocator@_K@std@@@std@@V?$_Vector_const_iterator@V?$_Vector_val@U?$_Simple_types@N@std@@@std@@@8@2@Z@4HA 	 DATA
	?$TSS0@?1???$createScalar@C@ArrayFactory@data@matlab@@QEAA?AV?$TypedArray@C@23@C@Z@4HA 	 DATA
	?$TSS0@?1???$createScalar@I@ArrayFactory@data@matlab@@QEAA?AV?$TypedArray@I@23@I@Z@4HA 	 DATA
	?$TSS0@?1???$createScalar@N@ArrayFactory@data@matlab@@QEAA?AV?$TypedArray@N@23@N@Z@4HA 	 DATA
	?$TSS0@?1???$createTempRef@N$00@?$TypedIterator@$$CBN@data@matlab@@AEAAPEANV?$shared_ptr@VIteratorImpl@detail@data@matlab@@@std@@@Z@4HA 	 DATA
	?$TSS0@?1???$getElement@C@detail@data@matlab@@YAAEACV?$shared_ptr@VReferenceImpl@detail@data@matlab@@@std@@@Z@4HA 	 DATA
	?$TSS0@?1???$getElement@I@detail@data@matlab@@YAAEAIV?$shared_ptr@VReferenceImpl@detail@data@matlab@@@std@@@Z@4HA 	 DATA
	?$TSS0@?1???$getElement@N@detail@data@matlab@@YAAEANV?$shared_ptr@VReferenceImpl@detail@data@matlab@@@std@@@Z@4HA 	 DATA
	?$TSS0@?1???$getRef@$$CBVStruct@data@matlab@@@?$TypedIterator@$$CBVStruct@data@matlab@@@data@matlab@@AEBA?AVStruct@23@XZ@4HA 	 DATA
	?$TSS0@?1???$setElement@VArray@data@matlab@@@detail@data@matlab@@YAXPEAVReferenceImpl@123@VArray@23@H@Z@4HA 	 DATA
	?$TSS0@?1???0?$TypedArray@_S@data@matlab@@QEAA@$$QEAVArray@23@@Z@4HA 	 DATA
	?$TSS0@?1???0ArrayFactory@data@matlab@@QEAA@XZ@4HA 	 DATA
	?$TSS0@?1???A?$ArrayElementTypedRef@VStruct@data@matlab@@$00@data@matlab@@QEAA?AV?$ArrayElementTypedRef@VArray@data@matlab@@$00@23@V?$basic_string@DU?$char_traits@D@std@@V?$allocator@D@2@@std@@@Z@4HA 	 DATA
	?$TSS0@?1???A?$ArrayElementTypedRef@VStruct@data@matlab@@$0A@@data@matlab@@QEAA?AV?$ArrayElementTypedRef@VArray@data@matlab@@$0A@@23@V?$basic_string@DU?$char_traits@D@std@@V?$allocator@D@2@@std@@@Z@4HA 	 DATA
	?$TSS0@?1???A?$TypedArray@C@data@matlab@@QEBA?AV?$ArrayElementTypedRef@C$00@23@_K@Z@4HA 	 DATA
	?$TSS0@?1???A?$TypedArray@I@data@matlab@@QEBA?AV?$ArrayElementTypedRef@I$00@23@_K@Z@4HA 	 DATA
	?$TSS0@?1???A?$TypedArray@N@data@matlab@@QEBA?AV?$ArrayElementTypedRef@N$00@23@_K@Z@4HA 	 DATA
	?$TSS0@?1???A?$TypedArray@VArray@data@matlab@@@data@matlab@@QEAA?AV?$ArrayElementTypedRef@VArray@data@matlab@@$0A@@23@_K@Z@4HA 	 DATA
	?$TSS0@?1???A?$TypedArray@VArray@data@matlab@@@data@matlab@@QEBA?AV?$ArrayElementTypedRef@VArray@data@matlab@@$00@23@_K@Z@4HA 	 DATA
	?$TSS0@?1???A?$TypedArray@VStruct@data@matlab@@@data@matlab@@QEAA?AV?$ArrayElementTypedRef@VStruct@data@matlab@@$0A@@23@_K@Z@4HA 	 DATA
	?$TSS0@?1???A?$TypedArray@VStruct@data@matlab@@@data@matlab@@QEBA?AV?$ArrayElementTypedRef@VStruct@data@matlab@@$00@23@_K@Z@4HA 	 DATA
	?$TSS0@?1???AStruct@data@matlab@@QEBA?AVArray@23@V?$basic_string@DU?$char_traits@D@std@@V?$allocator@D@2@@std@@@Z@4HA 	 DATA
	?$TSS0@?1???R<lambda_18bde30140702ba20a566c9dc393b8c0>@@QEBA@PEAVArrayImpl@impl@data@matlab@@@Z@4HA 	 DATA
	?$TSS0@?1???R<lambda_1cc0c119369d3677f6f4efcaefc6d3c2>@@QEBA@PEAVIteratorImpl@detail@data@matlab@@@Z@4HA 	 DATA
	?$TSS0@?1???R<lambda_2615407b98e1f3a14023b76f0dedc381>@@QEBA@PEAVReferenceImpl@detail@data@matlab@@@Z@4HA 	 DATA
	?$TSS0@?1???R<lambda_49bc69670bef5877f460780ec06c4b58>@@QEBA@PEAVArrayImpl@impl@data@matlab@@@Z@4HA 	 DATA
	?$TSS0@?1???R<lambda_5f4fcb290926e6b66c490376dc93f8ff>@@QEBA@PEAVIteratorImpl@detail@data@matlab@@@Z@4HA 	 DATA
	?$TSS0@?1???R<lambda_8717c4bee2934487c85bc1f9f4a10ac1>@@QEBA@PEAVArrayImpl@impl@data@matlab@@@Z@4HA 	 DATA
	?$TSS0@?1???R<lambda_9f3a4d0362104a3bede0405fafec76e1>@@QEBA@PEAVNameListImpl@detail@data@matlab@@@Z@4HA 	 DATA
	?$TSS0@?1???R<lambda_a4c5f97d4391fb4c09103a727c16defd>@@QEBA@PEAVArrayFactoryImpl@impl@data@matlab@@@Z@4HA 	 DATA
	?$TSS0@?1???R<lambda_f604b6d186b888d49827c9591affdc3a>@@QEBA@PEAVIteratorImpl@detail@data@matlab@@@Z@4HA 	 DATA
	?$TSS0@?1??begin@?$TypedArray@N@data@matlab@@QEBA?AV?$TypedIterator@$$CBN@34@XZ@4HA 	 DATA
	?$TSS0@?1??begin@?$TypedArray@VStruct@data@matlab@@@data@matlab@@QEBA?AV?$TypedIterator@$$CBVStruct@data@matlab@@@34@XZ@4HA 	 DATA
	?$TSS0@?1??createCharArray@ArrayFactory@data@matlab@@QEAA?AVCharArray@34@AEBV?$basic_string@DU?$char_traits@D@std@@V?$allocator@D@2@@std@@@Z@4HA 	 DATA
	?$TSS0@?1??createStructArray@ArrayFactory@data@matlab@@QEAA?AVStructArray@34@V?$vector@_KV?$allocator@_K@std@@@std@@V?$vector@V?$basic_string@DU?$char_traits@D@std@@V?$allocator@D@2@@std@@V?$allocator@V?$basic_string@DU?$char_traits@D@std@@V?$allocator@D@2@@std@@@2@@7@@Z@4HA 	 DATA
	?$TSS0@?1??end@?$TypedArray@VStruct@data@matlab@@@data@matlab@@QEBA?AV?$TypedIterator@$$CBVStruct@data@matlab@@@34@XZ@4HA 	 DATA
	?$TSS0@?1??getNumberOfElements@Array@data@matlab@@QEBA_KXZ@4HA 	 DATA
	?$TSS0@?1??getType@Array@data@matlab@@QEBA?AW4ArrayType@34@XZ@4HA 	 DATA
	?$TSS0@?1??toAscii@CharArray@data@matlab@@QEBA?AV?$basic_string@DU?$char_traits@D@std@@V?$allocator@D@2@@std@@XZ@4HA 	 DATA
	?$TSS0@?4???$resolveFunction@P6AHHHPEA_N@Z@detail@data@matlab@@YAP6AHHHPEA_N@ZW4FunctionType@123@@Z@4HA 	 DATA
	?$TSS0@?4???$resolveFunction@P6AHPEAPEAVArrayFactoryImpl@impl@data@matlab@@@Z@detail@data@matlab@@YAP6AHPEAPEAVArrayFactoryImpl@impl@23@@ZW4FunctionType@123@@Z@4HA 	 DATA
	?$TSS0@?4???$resolveFunction@P6AHPEAVArrayFactoryImpl@impl@data@matlab@@HPEA_K_KPEAPEAVArrayImpl@234@@Z@detail@data@matlab@@YAP6AHPEAVArrayFactoryImpl@impl@23@HPEA_K_KPEAPEAVArrayImpl@523@@ZW4FunctionType@123@@Z@4HA 	 DATA
	?$TSS0@?4???$resolveFunction@P6AHPEAVArrayFactoryImpl@impl@data@matlab@@HPEA_K_KQEBX2PEAPEAVArrayImpl@234@@Z@detail@data@matlab@@YAP6AHPEAVArrayFactoryImpl@impl@23@HPEA_K_KQEBX2PEAPEAVArrayImpl@523@@ZW4FunctionType@123@@Z@4HA 	 DATA
	?$TSS0@?4???$resolveFunction@P6AHPEAVArrayFactoryImpl@impl@data@matlab@@HPEBXPEAPEAVArrayImpl@234@@Z@detail@data@matlab@@YAP6AHPEAVArrayFactoryImpl@impl@23@HPEBXPEAPEAVArrayImpl@523@@ZW4FunctionType@123@@Z@4HA 	 DATA
	?$TSS0@?4???$resolveFunction@P6AHPEAVArrayFactoryImpl@impl@data@matlab@@PEA_K_KPEAVNameListImpl@detail@34@PEAPEAVArrayImpl@234@@Z@detail@data@matlab@@YAP6AHPEAVArrayFactoryImpl@impl@23@PEA_K_KPEAVNameListImpl@123@PEAPEAVArrayImpl@523@@ZW4FunctionType@123@@Z@4HA 	 DATA
	?$TSS0@?4???$resolveFunction@P6AHPEAVArrayFactoryImpl@impl@data@matlab@@PEBD_KPEAPEAVArrayImpl@234@@Z@detail@data@matlab@@YAP6AHPEAVArrayFactoryImpl@impl@23@PEBD_KPEAPEAVArrayImpl@523@@ZW4FunctionType@123@@Z@4HA 	 DATA
	?$TSS0@?4???$resolveFunction@P6AHPEAVArrayImpl@impl@data@matlab@@PEAH@Z@detail@data@matlab@@YAP6AHPEAVArrayImpl@impl@23@PEAH@ZW4FunctionType@123@@Z@4HA 	 DATA
	?$TSS0@?4???$resolveFunction@P6AHPEAVArrayImpl@impl@data@matlab@@PEAPEB_SPEA_K@Z@detail@data@matlab@@YAP6AHPEAVArrayImpl@impl@23@PEAPEB_SPEA_K@ZW4FunctionType@123@@Z@4HA 	 DATA
	?$TSS0@?4???$resolveFunction@P6AHPEAVArrayImpl@impl@data@matlab@@_KPEAPEAVReferenceImpl@detail@34@@Z@detail@data@matlab@@YAP6AHPEAVArrayImpl@impl@23@_KPEAPEAVReferenceImpl@123@@ZW4FunctionType@123@@Z@4HA 	 DATA
	?$TSS0@?4???$resolveFunction@P6AHPEAVReferenceImpl@detail@data@matlab@@H_N@Z@detail@data@matlab@@YAP6AHPEAVReferenceImpl@123@H_N@ZW4FunctionType@123@@Z@4HA 	 DATA
	?$TSS0@?4???$resolveFunction@P6AHPEAVReferenceImpl@detail@data@matlab@@PEAPEAX@Z@detail@data@matlab@@YAP6AHPEAVReferenceImpl@123@PEAPEAX@ZW4FunctionType@123@@Z@4HA 	 DATA
	?$TSS0@?4???$resolveFunction@P6AHPEAVReferenceImpl@detail@data@matlab@@PEAVArrayImpl@impl@34@@Z@detail@data@matlab@@YAP6AHPEAVReferenceImpl@123@PEAVArrayImpl@impl@23@@ZW4FunctionType@123@@Z@4HA 	 DATA
	?$TSS0@?4???$resolveFunction@P6AHPEAVReferenceImpl@detail@data@matlab@@PEBD_K@Z@detail@data@matlab@@YAP6AHPEAVReferenceImpl@123@PEBD_K@ZW4FunctionType@123@@Z@4HA 	 DATA
	?$TSS0@?4???$resolveFunction@P6AHPEAVReferenceImpl@detail@data@matlab@@PEBD_KPEAPEAVArrayImpl@impl@34@@Z@detail@data@matlab@@YAP6AHPEAVReferenceImpl@123@PEBD_KPEAPEAVArrayImpl@impl@23@@ZW4FunctionType@123@@Z@4HA 	 DATA
	?$TSS0@?4???$resolveFunction@P6APEAVIteratorImpl@detail@data@matlab@@PEAV1234@@Z@detail@data@matlab@@YAP6APEAVIteratorImpl@123@PEAV4123@@ZW4FunctionType@123@@Z@4HA 	 DATA
	?$TSS0@?4???$resolveFunction@P6APEAVIteratorImpl@detail@data@matlab@@PEAVArrayImpl@impl@34@_N@Z@detail@data@matlab@@YAP6APEAVIteratorImpl@123@PEAVArrayImpl@impl@23@_N@ZW4FunctionType@123@@Z@4HA 	 DATA
	?$TSS0@?4???$resolveFunction@P6APEAVNameListImpl@detail@data@matlab@@_K@Z@detail@data@matlab@@YAP6APEAVNameListImpl@123@_K@ZW4FunctionType@123@@Z@4HA 	 DATA
	?$TSS0@?4???$resolveFunction@P6AXPEAVArrayFactoryImpl@impl@data@matlab@@@Z@detail@data@matlab@@YAP6AXPEAVArrayFactoryImpl@impl@23@@ZW4FunctionType@123@@Z@4HA 	 DATA
	?$TSS0@?4???$resolveFunction@P6AXPEAVArrayImpl@impl@data@matlab@@@Z@detail@data@matlab@@YAP6AXPEAVArrayImpl@impl@23@@ZW4FunctionType@123@@Z@4HA 	 DATA
	?$TSS0@?4???$resolveFunction@P6AXPEAVIteratorImpl@detail@data@matlab@@@Z@detail@data@matlab@@YAP6AXPEAVIteratorImpl@123@@ZW4FunctionType@123@@Z@4HA 	 DATA
	?$TSS0@?4???$resolveFunction@P6AXPEAVIteratorImpl@detail@data@matlab@@PEAPEAVReferenceImpl@234@@Z@detail@data@matlab@@YAP6AXPEAVIteratorImpl@123@PEAPEAVReferenceImpl@123@@ZW4FunctionType@123@@Z@4HA 	 DATA
	?$TSS0@?4???$resolveFunction@P6AXPEAVIteratorImpl@detail@data@matlab@@PEAPEAX@Z@detail@data@matlab@@YAP6AXPEAVIteratorImpl@123@PEAPEAX@ZW4FunctionType@123@@Z@4HA 	 DATA
	?$TSS0@?4???$resolveFunction@P6AXPEAVNameListImpl@detail@data@matlab@@@Z@detail@data@matlab@@YAP6AXPEAVNameListImpl@123@@ZW4FunctionType@123@@Z@4HA 	 DATA
	?$TSS0@?4???$resolveFunction@P6AXPEAVNameListImpl@detail@data@matlab@@PEBD_K@Z@detail@data@matlab@@YAP6AXPEAVNameListImpl@123@PEBD_K@ZW4FunctionType@123@@Z@4HA 	 DATA
	?$TSS0@?4???$resolveFunction@P6AXPEAVReferenceImpl@detail@data@matlab@@@Z@detail@data@matlab@@YAP6AXPEAVReferenceImpl@123@@ZW4FunctionType@123@@Z@4HA 	 DATA
	?$TSS0@?4???$resolveFunction@P6AXPEAVReferenceImpl@detail@data@matlab@@PEAPEAVArrayImpl@impl@34@@Z@detail@data@matlab@@YAP6AXPEAVReferenceImpl@123@PEAPEAVArrayImpl@impl@23@@ZW4FunctionType@123@@Z@4HA 	 DATA
	?$TSS0@?4???$resolveFunction@P6A_KPEAVArrayImpl@impl@data@matlab@@@Z@detail@data@matlab@@YAP6A_KPEAVArrayImpl@impl@23@@ZW4FunctionType@123@@Z@4HA 	 DATA
	?$TSS0@?4???$resolveFunction@P6A_NPEAVArrayImpl@impl@data@matlab@@_NPEAPEAV1234@@Z@detail@data@matlab@@YAP6A_NPEAVArrayImpl@impl@23@_NPEAPEAV4523@@ZW4FunctionType@123@@Z@4HA 	 DATA
	?$TSS0@?4???$resolveFunction@P6A_NPEAVIteratorImpl@detail@data@matlab@@0@Z@detail@data@matlab@@YAP6A_NPEAVIteratorImpl@123@0@ZW4FunctionType@123@@Z@4HA 	 DATA
	?$TSS0@?4???0?$TypedIterator@$$CBN@data@matlab@@QEAA@AEBV123@@Z@4HA 	 DATA
	?$TSS1@?1???$castTo@V?$TypedArray@C@data@matlab@@$00@detail@data@matlab@@YA?AV?$TypedArray@C@23@V?$shared_ptr@VReferenceImpl@detail@data@matlab@@@std@@@Z@4HA 	 DATA
	?$TSS1@?1???$castTo@V?$TypedArray@I@data@matlab@@$00@detail@data@matlab@@YA?AV?$TypedArray@I@23@V?$shared_ptr@VReferenceImpl@detail@data@matlab@@@std@@@Z@4HA 	 DATA
	?$TSS1@?1???$castTo@V?$TypedArray@N@data@matlab@@$00@detail@data@matlab@@YA?AV?$TypedArray@N@23@V?$shared_ptr@VReferenceImpl@detail@data@matlab@@@std@@@Z@4HA 	 DATA
	?$TSS1@?1???$castTo@V?$TypedArray@VArray@data@matlab@@@data@matlab@@$00@detail@data@matlab@@YA?AV?$TypedArray@VArray@data@matlab@@@23@V?$shared_ptr@VReferenceImpl@detail@data@matlab@@@std@@@Z@4HA 	 DATA
	?$TSS1@?1???$castTo@VCharArray@data@matlab@@$00@detail@data@matlab@@YA?AVCharArray@23@V?$shared_ptr@VReferenceImpl@detail@data@matlab@@@std@@@Z@4HA 	 DATA
	?$TSS1@?1???$castTo@VStructArray@data@matlab@@$00@detail@data@matlab@@YA?AVStructArray@23@V?$shared_ptr@VReferenceImpl@detail@data@matlab@@@std@@@Z@4HA 	 DATA
	?$TSS1@?1???A?$TypedArray@VArray@data@matlab@@@data@matlab@@QEAA?AV?$ArrayElementTypedRef@VArray@data@matlab@@$0A@@23@_K@Z@4HA 	 DATA
	?$TSS1@?1???A?$TypedArray@VStruct@data@matlab@@@data@matlab@@QEAA?AV?$ArrayElementTypedRef@VStruct@data@matlab@@$0A@@23@_K@Z@4HA 	 DATA
	?$TSS1@?4??begin@?$TypedArray@N@data@matlab@@QEBA?AV?$TypedIterator@$$CBN@34@XZ@4HA 	 DATA
	?$TSS1@?4??begin@?$TypedArray@VStruct@data@matlab@@@data@matlab@@QEBA?AV?$TypedIterator@$$CBVStruct@data@matlab@@@34@XZ@4HA 	 DATA
	?$TSS1@?4??end@?$TypedArray@VStruct@data@matlab@@@data@matlab@@QEBA?AV?$TypedIterator@$$CBVStruct@data@matlab@@@34@XZ@4HA 	 DATA
	?$TSS2@?5??createStructArray@ArrayFactory@data@matlab@@QEAA?AVStructArray@34@V?$vector@_KV?$allocator@_K@std@@@std@@V?$vector@V?$basic_string@DU?$char_traits@D@std@@V?$allocator@D@2@@std@@V?$allocator@V?$basic_string@DU?$char_traits@D@std@@V?$allocator@D@2@@std@@@2@@7@@Z@4HA 	 DATA
	?$TSS3@?1??createStructArray@ArrayFactory@data@matlab@@QEAA?AVStructArray@34@V?$vector@_KV?$allocator@_K@std@@@std@@V?$vector@V?$basic_string@DU?$char_traits@D@std@@V?$allocator@D@2@@std@@V?$allocator@V?$basic_string@DU?$char_traits@D@std@@V?$allocator@D@2@@std@@@2@@7@@Z@4HA 	 DATA
	??_R0?AU?$DefaultMessageCreator@U?$Object_@V?$allocator@X@std@@@sam_custom_messages@@@ros@@@8 	 DATA
	??_R0?AU?$DefaultMessageCreator@U?$capability_@V?$allocator@X@std@@@sam_custom_messages@@@ros@@@8 	 DATA
	??_R0?AU?$DefaultMessageCreator@U?$current_action_@V?$allocator@X@std@@@sam_custom_messages@@@ros@@@8 	 DATA
	??_R0?AU?$DefaultMessageCreator@U?$diagnostics_@V?$allocator@X@std@@@sam_custom_messages@@@ros@@@8 	 DATA
	??_R0?AU?$DefaultMessageCreator@U?$hand_pos_@V?$allocator@X@std@@@sam_custom_messages@@@ros@@@8 	 DATA
	??_R0?AU?$DefaultMessageCreator@U?$object_state_@V?$allocator@X@std@@@sam_custom_messages@@@ros@@@8 	 DATA
	??_R0?AU?$DefaultMessageCreator@U?$robot_state_@V?$allocator@X@std@@@sam_custom_messages@@@ros@@@8 	 DATA
	??_R0?AU?$DefaultMessageCreator@U?$user_prediction_@V?$allocator@X@std@@@sam_custom_messages@@@ros@@@8 	 DATA
	??_R0?AU?$Object_@V?$allocator@X@std@@@sam_custom_messages@@@8 	 DATA
	??_R0?AU?$capability_@V?$allocator@X@std@@@sam_custom_messages@@@8 	 DATA
	??_R0?AU?$checked_array_deleter@E@mwboost@@@8 	 DATA
	??_R0?AU?$current_action_@V?$allocator@X@std@@@sam_custom_messages@@@8 	 DATA
	??_R0?AU?$diagnostics_@V?$allocator@X@std@@@sam_custom_messages@@@8 	 DATA
	??_R0?AU?$error_info_injector@Vbad_function_call@mwboost@@@exception_detail@mwboost@@@8 	 DATA
	??_R0?AU?$error_info_injector@Vthread_resource_error@mwboost@@@exception_detail@mwboost@@@8 	 DATA
	??_R0?AU?$hand_pos_@V?$allocator@X@std@@@sam_custom_messages@@@8 	 DATA
	??_R0?AU?$object_state_@V?$allocator@X@std@@@sam_custom_messages@@@8 	 DATA
	??_R0?AU?$robot_state_@V?$allocator@X@std@@@sam_custom_messages@@@8 	 DATA
	??_R0?AU?$user_prediction_@V?$allocator@X@std@@@sam_custom_messages@@@8 	 DATA
	??_R0?AU?$wrapexcept@Vbad_function_call@mwboost@@@mwboost@@@8 	 DATA
	??_R0?AU?$wrapexcept@Vthread_resource_error@mwboost@@@mwboost@@@8 	 DATA
	??_R0?AV<lambda_18bde30140702ba20a566c9dc393b8c0>@@@8 	 DATA
	??_R0?AV<lambda_1cc0c119369d3677f6f4efcaefc6d3c2>@@@8 	 DATA
	??_R0?AV<lambda_2615407b98e1f3a14023b76f0dedc381>@@@8 	 DATA
	??_R0?AV<lambda_49bc69670bef5877f460780ec06c4b58>@@@8 	 DATA
	??_R0?AV<lambda_5f4fcb290926e6b66c490376dc93f8ff>@@@8 	 DATA
	??_R0?AV<lambda_8717c4bee2934487c85bc1f9f4a10ac1>@@@8 	 DATA
	??_R0?AV<lambda_9f3a4d0362104a3bede0405fafec76e1>@@@8 	 DATA
	??_R0?AV<lambda_a4c5f97d4391fb4c09103a727c16defd>@@@8 	 DATA
	??_R0?AV<lambda_f604b6d186b888d49827c9591affdc3a>@@@8 	 DATA
	??_R0?AV?$AbstractMetaObject@VMATLABPublisherInterface@@@impl@class_loader@@@8 	 DATA
	??_R0?AV?$AbstractMetaObject@VMATLABSubscriberInterface@@@impl@class_loader@@@8 	 DATA
	??_R0?AV?$ArrayException@VException@matlab@@$00@detail@data@matlab@@@8 	 DATA
	??_R0?AV?$ArrayException@VException@matlab@@$01@detail@data@matlab@@@8 	 DATA
	??_R0?AV?$ArrayException@VException@matlab@@$02@detail@data@matlab@@@8 	 DATA
	??_R0?AV?$ArrayException@VException@matlab@@$04@detail@data@matlab@@@8 	 DATA
	??_R0?AV?$ArrayException@VException@matlab@@$05@detail@data@matlab@@@8 	 DATA
	??_R0?AV?$ArrayException@VException@matlab@@$06@detail@data@matlab@@@8 	 DATA
	??_R0?AV?$ArrayException@VException@matlab@@$07@detail@data@matlab@@@8 	 DATA
	??_R0?AV?$ArrayException@VException@matlab@@$08@detail@data@matlab@@@8 	 DATA
	??_R0?AV?$ArrayException@VException@matlab@@$09@detail@data@matlab@@@8 	 DATA
	??_R0?AV?$ArrayException@VException@matlab@@$0BA@@detail@data@matlab@@@8 	 DATA
	??_R0?AV?$ArrayException@VException@matlab@@$0BC@@detail@data@matlab@@@8 	 DATA
	??_R0?AV?$ArrayException@VException@matlab@@$0BD@@detail@data@matlab@@@8 	 DATA
	??_R0?AV?$ArrayException@VException@matlab@@$0BE@@detail@data@matlab@@@8 	 DATA
	??_R0?AV?$ArrayException@VException@matlab@@$0BF@@detail@data@matlab@@@8 	 DATA
	??_R0?AV?$ArrayException@VException@matlab@@$0BG@@detail@data@matlab@@@8 	 DATA
	??_R0?AV?$ArrayException@VException@matlab@@$0BH@@detail@data@matlab@@@8 	 DATA
	??_R0?AV?$ArrayException@VException@matlab@@$0BI@@detail@data@matlab@@@8 	 DATA
	??_R0?AV?$ArrayException@VException@matlab@@$0BJ@@detail@data@matlab@@@8 	 DATA
	??_R0?AV?$ArrayException@VException@matlab@@$0BK@@detail@data@matlab@@@8 	 DATA
	??_R0?AV?$ArrayException@VException@matlab@@$0BL@@detail@data@matlab@@@8 	 DATA
	??_R0?AV?$ArrayException@VException@matlab@@$0BM@@detail@data@matlab@@@8 	 DATA
	??_R0?AV?$ArrayException@VException@matlab@@$0BN@@detail@data@matlab@@@8 	 DATA
	??_R0?AV?$ArrayException@VException@matlab@@$0N@@detail@data@matlab@@@8 	 DATA
	??_R0?AV?$ArrayException@VException@matlab@@$0O@@detail@data@matlab@@@8 	 DATA
	??_R0?AV?$ArrayException@VException@matlab@@$0P@@detail@data@matlab@@@8 	 DATA
	??_R0?AV?$MetaObject@Vsam_custom_messages_msg_Object_publisher@@VMATLABPublisherInterface@@@impl@class_loader@@@8 	 DATA
	??_R0?AV?$MetaObject@Vsam_custom_messages_msg_Object_subscriber@@VMATLABSubscriberInterface@@@impl@class_loader@@@8 	 DATA
	??_R0?AV?$MetaObject@Vsam_custom_messages_msg_capability_publisher@@VMATLABPublisherInterface@@@impl@class_loader@@@8 	 DATA
	??_R0?AV?$MetaObject@Vsam_custom_messages_msg_capability_subscriber@@VMATLABSubscriberInterface@@@impl@class_loader@@@8 	 DATA
	??_R0?AV?$MetaObject@Vsam_custom_messages_msg_current_action_publisher@@VMATLABPublisherInterface@@@impl@class_loader@@@8 	 DATA
	??_R0?AV?$MetaObject@Vsam_custom_messages_msg_current_action_subscriber@@VMATLABSubscriberInterface@@@impl@class_loader@@@8 	 DATA
	??_R0?AV?$MetaObject@Vsam_custom_messages_msg_diagnostics_publisher@@VMATLABPublisherInterface@@@impl@class_loader@@@8 	 DATA
	??_R0?AV?$MetaObject@Vsam_custom_messages_msg_diagnostics_subscriber@@VMATLABSubscriberInterface@@@impl@class_loader@@@8 	 DATA
	??_R0?AV?$MetaObject@Vsam_custom_messages_msg_hand_pos_publisher@@VMATLABPublisherInterface@@@impl@class_loader@@@8 	 DATA
	??_R0?AV?$MetaObject@Vsam_custom_messages_msg_hand_pos_subscriber@@VMATLABSubscriberInterface@@@impl@class_loader@@@8 	 DATA
	??_R0?AV?$MetaObject@Vsam_custom_messages_msg_object_state_publisher@@VMATLABPublisherInterface@@@impl@class_loader@@@8 	 DATA
	??_R0?AV?$MetaObject@Vsam_custom_messages_msg_object_state_subscriber@@VMATLABSubscriberInterface@@@impl@class_loader@@@8 	 DATA
	??_R0?AV?$MetaObject@Vsam_custom_messages_msg_robot_state_publisher@@VMATLABPublisherInterface@@@impl@class_loader@@@8 	 DATA
	??_R0?AV?$MetaObject@Vsam_custom_messages_msg_robot_state_subscriber@@VMATLABSubscriberInterface@@@impl@class_loader@@@8 	 DATA
	??_R0?AV?$MetaObject@Vsam_custom_messages_msg_user_prediction_publisher@@VMATLABPublisherInterface@@@impl@class_loader@@@8 	 DATA
	??_R0?AV?$MetaObject@Vsam_custom_messages_msg_user_prediction_subscriber@@VMATLABSubscriberInterface@@@impl@class_loader@@@8 	 DATA
	??_R0?AV?$SubscriptionCallbackHelperT@AEBV?$shared_ptr@$$CBU?$Object_@V?$allocator@X@std@@@sam_custom_messages@@@mwboost@@X@ros@@@8 	 DATA
	??_R0?AV?$SubscriptionCallbackHelperT@AEBV?$shared_ptr@$$CBU?$capability_@V?$allocator@X@std@@@sam_custom_messages@@@mwboost@@X@ros@@@8 	 DATA
	??_R0?AV?$SubscriptionCallbackHelperT@AEBV?$shared_ptr@$$CBU?$current_action_@V?$allocator@X@std@@@sam_custom_messages@@@mwboost@@X@ros@@@8 	 DATA
	??_R0?AV?$SubscriptionCallbackHelperT@AEBV?$shared_ptr@$$CBU?$diagnostics_@V?$allocator@X@std@@@sam_custom_messages@@@mwboost@@X@ros@@@8 	 DATA
	??_R0?AV?$SubscriptionCallbackHelperT@AEBV?$shared_ptr@$$CBU?$hand_pos_@V?$allocator@X@std@@@sam_custom_messages@@@mwboost@@X@ros@@@8 	 DATA
	??_R0?AV?$SubscriptionCallbackHelperT@AEBV?$shared_ptr@$$CBU?$object_state_@V?$allocator@X@std@@@sam_custom_messages@@@mwboost@@X@ros@@@8 	 DATA
	??_R0?AV?$SubscriptionCallbackHelperT@AEBV?$shared_ptr@$$CBU?$robot_state_@V?$allocator@X@std@@@sam_custom_messages@@@mwboost@@X@ros@@@8 	 DATA
	??_R0?AV?$SubscriptionCallbackHelperT@AEBV?$shared_ptr@$$CBU?$user_prediction_@V?$allocator@X@std@@@sam_custom_messages@@@mwboost@@X@ros@@@8 	 DATA
	??_R0?AV?$TypedArray@C@data@matlab@@@8 	 DATA
	??_R0?AV?$TypedArray@I@data@matlab@@@8 	 DATA
	??_R0?AV?$TypedArray@N@data@matlab@@@8 	 DATA
	??_R0?AV?$TypedArray@VArray@data@matlab@@@data@matlab@@@8 	 DATA
	??_R0?AV?$TypedArray@VStruct@data@matlab@@@data@matlab@@@8 	 DATA
	??_R0?AV?$TypedArray@_S@data@matlab@@@8 	 DATA
	??_R0?AV?$_Ref_count_obj@VPublisher@ros@@@std@@@8 	 DATA
	??_R0?AV?$_Ref_count_obj@VSubscriber@ros@@@std@@@8 	 DATA
	??_R0?AV?$_Ref_count_resource@PEAVArrayFactoryImpl@impl@data@matlab@@V<lambda_a4c5f97d4391fb4c09103a727c16defd>@@@std@@@8 	 DATA
	??_R0?AV?$_Ref_count_resource@PEAVArrayImpl@impl@data@matlab@@V<lambda_18bde30140702ba20a566c9dc393b8c0>@@@std@@@8 	 DATA
	??_R0?AV?$_Ref_count_resource@PEAVArrayImpl@impl@data@matlab@@V<lambda_49bc69670bef5877f460780ec06c4b58>@@@std@@@8 	 DATA
	??_R0?AV?$_Ref_count_resource@PEAVArrayImpl@impl@data@matlab@@V<lambda_8717c4bee2934487c85bc1f9f4a10ac1>@@@std@@@8 	 DATA
	??_R0?AV?$_Ref_count_resource@PEAVIteratorImpl@detail@data@matlab@@V<lambda_1cc0c119369d3677f6f4efcaefc6d3c2>@@@std@@@8 	 DATA
	??_R0?AV?$_Ref_count_resource@PEAVIteratorImpl@detail@data@matlab@@V<lambda_5f4fcb290926e6b66c490376dc93f8ff>@@@std@@@8 	 DATA
	??_R0?AV?$_Ref_count_resource@PEAVIteratorImpl@detail@data@matlab@@V<lambda_f604b6d186b888d49827c9591affdc3a>@@@std@@@8 	 DATA
	??_R0?AV?$_Ref_count_resource@PEAVNameListImpl@detail@data@matlab@@V<lambda_9f3a4d0362104a3bede0405fafec76e1>@@@std@@@8 	 DATA
	??_R0?AV?$_Ref_count_resource@PEAVReferenceImpl@detail@data@matlab@@V<lambda_2615407b98e1f3a14023b76f0dedc381>@@@std@@@8 	 DATA
	??_R0?AV?$bind_t@VSerializedMessage@ros@@P6A?AV12@AEBU?$Object_@V?$allocator@X@std@@@sam_custom_messages@@@ZV?$list1@V?$reference_wrapper@U?$Object_@V?$allocator@X@std@@@sam_custom_messages@@@mwboost@@@_bi@mwboost@@@_bi@mwboost@@@8 	 DATA
	??_R0?AV?$bind_t@VSerializedMessage@ros@@P6A?AV12@AEBU?$capability_@V?$allocator@X@std@@@sam_custom_messages@@@ZV?$list1@V?$reference_wrapper@U?$capability_@V?$allocator@X@std@@@sam_custom_messages@@@mwboost@@@_bi@mwboost@@@_bi@mwboost@@@8 	 DATA
	??_R0?AV?$bind_t@VSerializedMessage@ros@@P6A?AV12@AEBU?$current_action_@V?$allocator@X@std@@@sam_custom_messages@@@ZV?$list1@V?$reference_wrapper@U?$current_action_@V?$allocator@X@std@@@sam_custom_messages@@@mwboost@@@_bi@mwboost@@@_bi@mwboost@@@8 	 DATA
	??_R0?AV?$bind_t@VSerializedMessage@ros@@P6A?AV12@AEBU?$diagnostics_@V?$allocator@X@std@@@sam_custom_messages@@@ZV?$list1@V?$reference_wrapper@U?$diagnostics_@V?$allocator@X@std@@@sam_custom_messages@@@mwboost@@@_bi@mwboost@@@_bi@mwboost@@@8 	 DATA
	??_R0?AV?$bind_t@VSerializedMessage@ros@@P6A?AV12@AEBU?$hand_pos_@V?$allocator@X@std@@@sam_custom_messages@@@ZV?$list1@V?$reference_wrapper@U?$hand_pos_@V?$allocator@X@std@@@sam_custom_messages@@@mwboost@@@_bi@mwboost@@@_bi@mwboost@@@8 	 DATA
	??_R0?AV?$bind_t@VSerializedMessage@ros@@P6A?AV12@AEBU?$object_state_@V?$allocator@X@std@@@sam_custom_messages@@@ZV?$list1@V?$reference_wrapper@U?$object_state_@V?$allocator@X@std@@@sam_custom_messages@@@mwboost@@@_bi@mwboost@@@_bi@mwboost@@@8 	 DATA
	??_R0?AV?$bind_t@VSerializedMessage@ros@@P6A?AV12@AEBU?$robot_state_@V?$allocator@X@std@@@sam_custom_messages@@@ZV?$list1@V?$reference_wrapper@U?$robot_state_@V?$allocator@X@std@@@sam_custom_messages@@@mwboost@@@_bi@mwboost@@@_bi@mwboost@@@8 	 DATA
	??_R0?AV?$bind_t@VSerializedMessage@ros@@P6A?AV12@AEBU?$user_prediction_@V?$allocator@X@std@@@sam_custom_messages@@@ZV?$list1@V?$reference_wrapper@U?$user_prediction_@V?$allocator@X@std@@@sam_custom_messages@@@mwboost@@@_bi@mwboost@@@_bi@mwboost@@@8 	 DATA
	??_R0?AV?$bind_t@XV?$mf1@XVsam_custom_messages_msg_Object_subscriber@@AEBV?$shared_ptr@$$CBU?$Object_@V?$allocator@X@std@@@sam_custom_messages@@@mwboost@@@_mfi@mwboost@@V?$list2@V?$value@PEAVsam_custom_messages_msg_Object_subscriber@@@_bi@mwboost@@U?$arg@$00@3@@_bi@3@@_bi@mwboost@@@8 	 DATA
	??_R0?AV?$bind_t@XV?$mf1@XVsam_custom_messages_msg_capability_subscriber@@AEBV?$shared_ptr@$$CBU?$capability_@V?$allocator@X@std@@@sam_custom_messages@@@mwboost@@@_mfi@mwboost@@V?$list2@V?$value@PEAVsam_custom_messages_msg_capability_subscriber@@@_bi@mwboost@@U?$arg@$00@3@@_bi@3@@_bi@mwboost@@@8 	 DATA
	??_R0?AV?$bind_t@XV?$mf1@XVsam_custom_messages_msg_current_action_subscriber@@AEBV?$shared_ptr@$$CBU?$current_action_@V?$allocator@X@std@@@sam_custom_messages@@@mwboost@@@_mfi@mwboost@@V?$list2@V?$value@PEAVsam_custom_messages_msg_current_action_subscriber@@@_bi@mwboost@@U?$arg@$00@3@@_bi@3@@_bi@mwboost@@@8 	 DATA
	??_R0?AV?$bind_t@XV?$mf1@XVsam_custom_messages_msg_diagnostics_subscriber@@AEBV?$shared_ptr@$$CBU?$diagnostics_@V?$allocator@X@std@@@sam_custom_messages@@@mwboost@@@_mfi@mwboost@@V?$list2@V?$value@PEAVsam_custom_messages_msg_diagnostics_subscriber@@@_bi@mwboost@@U?$arg@$00@3@@_bi@3@@_bi@mwboost@@@8 	 DATA
	??_R0?AV?$bind_t@XV?$mf1@XVsam_custom_messages_msg_hand_pos_subscriber@@AEBV?$shared_ptr@$$CBU?$hand_pos_@V?$allocator@X@std@@@sam_custom_messages@@@mwboost@@@_mfi@mwboost@@V?$list2@V?$value@PEAVsam_custom_messages_msg_hand_pos_subscriber@@@_bi@mwboost@@U?$arg@$00@3@@_bi@3@@_bi@mwboost@@@8 	 DATA
	??_R0?AV?$bind_t@XV?$mf1@XVsam_custom_messages_msg_object_state_subscriber@@AEBV?$shared_ptr@$$CBU?$object_state_@V?$allocator@X@std@@@sam_custom_messages@@@mwboost@@@_mfi@mwboost@@V?$list2@V?$value@PEAVsam_custom_messages_msg_object_state_subscriber@@@_bi@mwboost@@U?$arg@$00@3@@_bi@3@@_bi@mwboost@@@8 	 DATA
	??_R0?AV?$bind_t@XV?$mf1@XVsam_custom_messages_msg_robot_state_subscriber@@AEBV?$shared_ptr@$$CBU?$robot_state_@V?$allocator@X@std@@@sam_custom_messages@@@mwboost@@@_mfi@mwboost@@V?$list2@V?$value@PEAVsam_custom_messages_msg_robot_state_subscriber@@@_bi@mwboost@@U?$arg@$00@3@@_bi@3@@_bi@mwboost@@@8 	 DATA
	??_R0?AV?$bind_t@XV?$mf1@XVsam_custom_messages_msg_user_prediction_subscriber@@AEBV?$shared_ptr@$$CBU?$user_prediction_@V?$allocator@X@std@@@sam_custom_messages@@@mwboost@@@_mfi@mwboost@@V?$list2@V?$value@PEAVsam_custom_messages_msg_user_prediction_subscriber@@@_bi@mwboost@@U?$arg@$00@3@@_bi@3@@_bi@mwboost@@@8 	 DATA
	??_R0?AV?$clone_impl@U?$error_info_injector@Vbad_function_call@mwboost@@@exception_detail@mwboost@@@exception_detail@mwboost@@@8 	 DATA
	??_R0?AV?$clone_impl@U?$error_info_injector@Vthread_resource_error@mwboost@@@exception_detail@mwboost@@@exception_detail@mwboost@@@8 	 DATA
	??_R0?AV?$function@$$A6AXAEBV?$shared_ptr@$$CBU?$Object_@V?$allocator@X@std@@@sam_custom_messages@@@mwboost@@@Z@mwboost@@@8 	 DATA
	??_R0?AV?$function@$$A6AXAEBV?$shared_ptr@$$CBU?$capability_@V?$allocator@X@std@@@sam_custom_messages@@@mwboost@@@Z@mwboost@@@8 	 DATA
	??_R0?AV?$function@$$A6AXAEBV?$shared_ptr@$$CBU?$current_action_@V?$allocator@X@std@@@sam_custom_messages@@@mwboost@@@Z@mwboost@@@8 	 DATA
	??_R0?AV?$function@$$A6AXAEBV?$shared_ptr@$$CBU?$diagnostics_@V?$allocator@X@std@@@sam_custom_messages@@@mwboost@@@Z@mwboost@@@8 	 DATA
	??_R0?AV?$function@$$A6AXAEBV?$shared_ptr@$$CBU?$hand_pos_@V?$allocator@X@std@@@sam_custom_messages@@@mwboost@@@Z@mwboost@@@8 	 DATA
	??_R0?AV?$function@$$A6AXAEBV?$shared_ptr@$$CBU?$object_state_@V?$allocator@X@std@@@sam_custom_messages@@@mwboost@@@Z@mwboost@@@8 	 DATA
	??_R0?AV?$function@$$A6AXAEBV?$shared_ptr@$$CBU?$robot_state_@V?$allocator@X@std@@@sam_custom_messages@@@mwboost@@@Z@mwboost@@@8 	 DATA
	??_R0?AV?$function@$$A6AXAEBV?$shared_ptr@$$CBU?$user_prediction_@V?$allocator@X@std@@@sam_custom_messages@@@mwboost@@@Z@mwboost@@@8 	 DATA
	??_R0?AV?$sp_counted_impl_pd@PEAEU?$checked_array_deleter@E@mwboost@@@detail@mwboost@@@8 	 DATA
	??_R0?AV?$sp_counted_impl_pd@PEAU?$Object_@V?$allocator@X@std@@@sam_custom_messages@@V?$sp_ms_deleter@U?$Object_@V?$allocator@X@std@@@sam_custom_messages@@@detail@mwboost@@@detail@mwboost@@@8 	 DATA
	??_R0?AV?$sp_counted_impl_pd@PEAU?$capability_@V?$allocator@X@std@@@sam_custom_messages@@V?$sp_ms_deleter@U?$capability_@V?$allocator@X@std@@@sam_custom_messages@@@detail@mwboost@@@detail@mwboost@@@8 	 DATA
	??_R0?AV?$sp_counted_impl_pd@PEAU?$current_action_@V?$allocator@X@std@@@sam_custom_messages@@V?$sp_ms_deleter@U?$current_action_@V?$allocator@X@std@@@sam_custom_messages@@@detail@mwboost@@@detail@mwboost@@@8 	 DATA
	??_R0?AV?$sp_counted_impl_pd@PEAU?$diagnostics_@V?$allocator@X@std@@@sam_custom_messages@@V?$sp_ms_deleter@U?$diagnostics_@V?$allocator@X@std@@@sam_custom_messages@@@detail@mwboost@@@detail@mwboost@@@8 	 DATA
	??_R0?AV?$sp_counted_impl_pd@PEAU?$hand_pos_@V?$allocator@X@std@@@sam_custom_messages@@V?$sp_ms_deleter@U?$hand_pos_@V?$allocator@X@std@@@sam_custom_messages@@@detail@mwboost@@@detail@mwboost@@@8 	 DATA
	??_R0?AV?$sp_counted_impl_pd@PEAU?$object_state_@V?$allocator@X@std@@@sam_custom_messages@@V?$sp_ms_deleter@U?$object_state_@V?$allocator@X@std@@@sam_custom_messages@@@detail@mwboost@@@detail@mwboost@@@8 	 DATA
	??_R0?AV?$sp_counted_impl_pd@PEAU?$robot_state_@V?$allocator@X@std@@@sam_custom_messages@@V?$sp_ms_deleter@U?$robot_state_@V?$allocator@X@std@@@sam_custom_messages@@@detail@mwboost@@@detail@mwboost@@@8 	 DATA
	??_R0?AV?$sp_counted_impl_pd@PEAU?$user_prediction_@V?$allocator@X@std@@@sam_custom_messages@@V?$sp_ms_deleter@U?$user_prediction_@V?$allocator@X@std@@@sam_custom_messages@@@detail@mwboost@@@detail@mwboost@@@8 	 DATA
	??_R0?AV?$sp_counted_impl_pd@PEAV?$SubscriptionCallbackHelperT@AEBV?$shared_ptr@$$CBU?$Object_@V?$allocator@X@std@@@sam_custom_messages@@@mwboost@@X@ros@@V?$sp_ms_deleter@V?$SubscriptionCallbackHelperT@AEBV?$shared_ptr@$$CBU?$Object_@V?$allocator@X@std@@@sam_custom_messages@@@mwboost@@X@ros@@@detail@mwboost@@@detail@mwboost@@@8 	 DATA
	??_R0?AV?$sp_counted_impl_pd@PEAV?$SubscriptionCallbackHelperT@AEBV?$shared_ptr@$$CBU?$capability_@V?$allocator@X@std@@@sam_custom_messages@@@mwboost@@X@ros@@V?$sp_ms_deleter@V?$SubscriptionCallbackHelperT@AEBV?$shared_ptr@$$CBU?$capability_@V?$allocator@X@std@@@sam_custom_messages@@@mwboost@@X@ros@@@detail@mwboost@@@detail@mwboost@@@8 	 DATA
	??_R0?AV?$sp_counted_impl_pd@PEAV?$SubscriptionCallbackHelperT@AEBV?$shared_ptr@$$CBU?$current_action_@V?$allocator@X@std@@@sam_custom_messages@@@mwboost@@X@ros@@V?$sp_ms_deleter@V?$SubscriptionCallbackHelperT@AEBV?$shared_ptr@$$CBU?$current_action_@V?$allocator@X@std@@@sam_custom_messages@@@mwboost@@X@ros@@@detail@mwboost@@@detail@mwboost@@@8 	 DATA
	??_R0?AV?$sp_counted_impl_pd@PEAV?$SubscriptionCallbackHelperT@AEBV?$shared_ptr@$$CBU?$diagnostics_@V?$allocator@X@std@@@sam_custom_messages@@@mwboost@@X@ros@@V?$sp_ms_deleter@V?$SubscriptionCallbackHelperT@AEBV?$shared_ptr@$$CBU?$diagnostics_@V?$allocator@X@std@@@sam_custom_messages@@@mwboost@@X@ros@@@detail@mwboost@@@detail@mwboost@@@8 	 DATA
	??_R0?AV?$sp_counted_impl_pd@PEAV?$SubscriptionCallbackHelperT@AEBV?$shared_ptr@$$CBU?$hand_pos_@V?$allocator@X@std@@@sam_custom_messages@@@mwboost@@X@ros@@V?$sp_ms_deleter@V?$SubscriptionCallbackHelperT@AEBV?$shared_ptr@$$CBU?$hand_pos_@V?$allocator@X@std@@@sam_custom_messages@@@mwboost@@X@ros@@@detail@mwboost@@@detail@mwboost@@@8 	 DATA
	??_R0?AV?$sp_counted_impl_pd@PEAV?$SubscriptionCallbackHelperT@AEBV?$shared_ptr@$$CBU?$object_state_@V?$allocator@X@std@@@sam_custom_messages@@@mwboost@@X@ros@@V?$sp_ms_deleter@V?$SubscriptionCallbackHelperT@AEBV?$shared_ptr@$$CBU?$object_state_@V?$allocator@X@std@@@sam_custom_messages@@@mwboost@@X@ros@@@detail@mwboost@@@detail@mwboost@@@8 	 DATA
	??_R0?AV?$sp_counted_impl_pd@PEAV?$SubscriptionCallbackHelperT@AEBV?$shared_ptr@$$CBU?$robot_state_@V?$allocator@X@std@@@sam_custom_messages@@@mwboost@@X@ros@@V?$sp_ms_deleter@V?$SubscriptionCallbackHelperT@AEBV?$shared_ptr@$$CBU?$robot_state_@V?$allocator@X@std@@@sam_custom_messages@@@mwboost@@X@ros@@@detail@mwboost@@@detail@mwboost@@@8 	 DATA
	??_R0?AV?$sp_counted_impl_pd@PEAV?$SubscriptionCallbackHelperT@AEBV?$shared_ptr@$$CBU?$user_prediction_@V?$allocator@X@std@@@sam_custom_messages@@@mwboost@@X@ros@@V?$sp_ms_deleter@V?$SubscriptionCallbackHelperT@AEBV?$shared_ptr@$$CBU?$user_prediction_@V?$allocator@X@std@@@sam_custom_messages@@@mwboost@@X@ros@@@detail@mwboost@@@detail@mwboost@@@8 	 DATA
	??_R0?AV?$sp_ms_deleter@U?$Object_@V?$allocator@X@std@@@sam_custom_messages@@@detail@mwboost@@@8 	 DATA
	??_R0?AV?$sp_ms_deleter@U?$capability_@V?$allocator@X@std@@@sam_custom_messages@@@detail@mwboost@@@8 	 DATA
	??_R0?AV?$sp_ms_deleter@U?$current_action_@V?$allocator@X@std@@@sam_custom_messages@@@detail@mwboost@@@8 	 DATA
	??_R0?AV?$sp_ms_deleter@U?$diagnostics_@V?$allocator@X@std@@@sam_custom_messages@@@detail@mwboost@@@8 	 DATA
	??_R0?AV?$sp_ms_deleter@U?$hand_pos_@V?$allocator@X@std@@@sam_custom_messages@@@detail@mwboost@@@8 	 DATA
	??_R0?AV?$sp_ms_deleter@U?$object_state_@V?$allocator@X@std@@@sam_custom_messages@@@detail@mwboost@@@8 	 DATA
	??_R0?AV?$sp_ms_deleter@U?$robot_state_@V?$allocator@X@std@@@sam_custom_messages@@@detail@mwboost@@@8 	 DATA
	??_R0?AV?$sp_ms_deleter@U?$user_prediction_@V?$allocator@X@std@@@sam_custom_messages@@@detail@mwboost@@@8 	 DATA
	??_R0?AV?$sp_ms_deleter@V?$SubscriptionCallbackHelperT@AEBV?$shared_ptr@$$CBU?$Object_@V?$allocator@X@std@@@sam_custom_messages@@@mwboost@@X@ros@@@detail@mwboost@@@8 	 DATA
	??_R0?AV?$sp_ms_deleter@V?$SubscriptionCallbackHelperT@AEBV?$shared_ptr@$$CBU?$capability_@V?$allocator@X@std@@@sam_custom_messages@@@mwboost@@X@ros@@@detail@mwboost@@@8 	 DATA
	??_R0?AV?$sp_ms_deleter@V?$SubscriptionCallbackHelperT@AEBV?$shared_ptr@$$CBU?$current_action_@V?$allocator@X@std@@@sam_custom_messages@@@mwboost@@X@ros@@@detail@mwboost@@@8 	 DATA
	??_R0?AV?$sp_ms_deleter@V?$SubscriptionCallbackHelperT@AEBV?$shared_ptr@$$CBU?$diagnostics_@V?$allocator@X@std@@@sam_custom_messages@@@mwboost@@X@ros@@@detail@mwboost@@@8 	 DATA
	??_R0?AV?$sp_ms_deleter@V?$SubscriptionCallbackHelperT@AEBV?$shared_ptr@$$CBU?$hand_pos_@V?$allocator@X@std@@@sam_custom_messages@@@mwboost@@X@ros@@@detail@mwboost@@@8 	 DATA
	??_R0?AV?$sp_ms_deleter@V?$SubscriptionCallbackHelperT@AEBV?$shared_ptr@$$CBU?$object_state_@V?$allocator@X@std@@@sam_custom_messages@@@mwboost@@X@ros@@@detail@mwboost@@@8 	 DATA
	??_R0?AV?$sp_ms_deleter@V?$SubscriptionCallbackHelperT@AEBV?$shared_ptr@$$CBU?$robot_state_@V?$allocator@X@std@@@sam_custom_messages@@@mwboost@@X@ros@@@detail@mwboost@@@8 	 DATA
	??_R0?AV?$sp_ms_deleter@V?$SubscriptionCallbackHelperT@AEBV?$shared_ptr@$$CBU?$user_prediction_@V?$allocator@X@std@@@sam_custom_messages@@@mwboost@@X@ros@@@detail@mwboost@@@8 	 DATA
	??_R0?AVAbstractMetaObjectBase@impl@class_loader@@@8 	 DATA
	??_R0?AVArray@data@matlab@@@8 	 DATA
	??_R0?AVCharArray@data@matlab@@@8 	 DATA
	??_R0?AVException@matlab@@@8 	 DATA
	??_R0?AVMATLABPublisherInterface@@@8 	 DATA
	??_R0?AVMATLABSubscriberInterface@@@8 	 DATA
	??_R0?AVStructArray@data@matlab@@@8 	 DATA
	??_R0?AVSubscriptionCallbackHelper@ros@@@8 	 DATA
	??_R0?AV_Ref_count_base@std@@@8 	 DATA
	??_R0?AVbad_function_call@mwboost@@@8 	 DATA
	??_R0?AVclone_base@exception_detail@mwboost@@@8 	 DATA
	??_R0?AVerror_category@system@mwboost@@@8 	 DATA
	??_R0?AVexception@mwboost@@@8 	 DATA
	??_R0?AVexception@std@@@8 	 DATA
	??_R0?AVgeneric_error_category@detail@system@mwboost@@@8 	 DATA
	??_R0?AVinvalid_argument@std@@@8 	 DATA
	??_R0?AVlogic_error@std@@@8 	 DATA
	??_R0?AVruntime_error@std@@@8 	 DATA
	??_R0?AVsam_custom_messages_msg_Object_publisher@@@8 	 DATA
	??_R0?AVsam_custom_messages_msg_Object_subscriber@@@8 	 DATA
	??_R0?AVsam_custom_messages_msg_capability_publisher@@@8 	 DATA
	??_R0?AVsam_custom_messages_msg_capability_subscriber@@@8 	 DATA
	??_R0?AVsam_custom_messages_msg_current_action_publisher@@@8 	 DATA
	??_R0?AVsam_custom_messages_msg_current_action_subscriber@@@8 	 DATA
	??_R0?AVsam_custom_messages_msg_diagnostics_publisher@@@8 	 DATA
	??_R0?AVsam_custom_messages_msg_diagnostics_subscriber@@@8 	 DATA
	??_R0?AVsam_custom_messages_msg_hand_pos_publisher@@@8 	 DATA
	??_R0?AVsam_custom_messages_msg_hand_pos_subscriber@@@8 	 DATA
	??_R0?AVsam_custom_messages_msg_object_state_publisher@@@8 	 DATA
	??_R0?AVsam_custom_messages_msg_object_state_subscriber@@@8 	 DATA
	??_R0?AVsam_custom_messages_msg_robot_state_publisher@@@8 	 DATA
	??_R0?AVsam_custom_messages_msg_robot_state_subscriber@@@8 	 DATA
	??_R0?AVsam_custom_messages_msg_user_prediction_publisher@@@8 	 DATA
	??_R0?AVsam_custom_messages_msg_user_prediction_subscriber@@@8 	 DATA
	??_R0?AVsp_counted_base@detail@mwboost@@@8 	 DATA
	??_R0?AVsystem_error@system@mwboost@@@8 	 DATA
	??_R0?AVsystem_error_category@detail@system@mwboost@@@8 	 DATA
	??_R0?AVthread_exception@mwboost@@@8 	 DATA
	??_R0?AVthread_resource_error@mwboost@@@8 	 DATA
	?_OptionsStorage@?1??__local_stdio_printf_options@@9@4_KA 	 DATA
	?__rosconsole_define_location__loc@?6??deserialize@?$SubscriptionCallbackHelperT@AEBV?$shared_ptr@$$CBU?$Object_@V?$allocator@X@std@@@sam_custom_messages@@@mwboost@@X@ros@@UEAA?AV?$shared_ptr@$$CBX@mwboost@@AEBUSubscriptionCallbackHelperDeserializeParams@3@@Z@4ULogLocation@console@3@A 	 DATA
	?__rosconsole_define_location__loc@?6??deserialize@?$SubscriptionCallbackHelperT@AEBV?$shared_ptr@$$CBU?$capability_@V?$allocator@X@std@@@sam_custom_messages@@@mwboost@@X@ros@@UEAA?AV?$shared_ptr@$$CBX@mwboost@@AEBUSubscriptionCallbackHelperDeserializeParams@3@@Z@4ULogLocation@console@3@A 	 DATA
	?__rosconsole_define_location__loc@?6??deserialize@?$SubscriptionCallbackHelperT@AEBV?$shared_ptr@$$CBU?$current_action_@V?$allocator@X@std@@@sam_custom_messages@@@mwboost@@X@ros@@UEAA?AV?$shared_ptr@$$CBX@mwboost@@AEBUSubscriptionCallbackHelperDeserializeParams@3@@Z@4ULogLocation@console@3@A 	 DATA
	?__rosconsole_define_location__loc@?6??deserialize@?$SubscriptionCallbackHelperT@AEBV?$shared_ptr@$$CBU?$diagnostics_@V?$allocator@X@std@@@sam_custom_messages@@@mwboost@@X@ros@@UEAA?AV?$shared_ptr@$$CBX@mwboost@@AEBUSubscriptionCallbackHelperDeserializeParams@3@@Z@4ULogLocation@console@3@A 	 DATA
	?__rosconsole_define_location__loc@?6??deserialize@?$SubscriptionCallbackHelperT@AEBV?$shared_ptr@$$CBU?$hand_pos_@V?$allocator@X@std@@@sam_custom_messages@@@mwboost@@X@ros@@UEAA?AV?$shared_ptr@$$CBX@mwboost@@AEBUSubscriptionCallbackHelperDeserializeParams@3@@Z@4ULogLocation@console@3@A 	 DATA
	?__rosconsole_define_location__loc@?6??deserialize@?$SubscriptionCallbackHelperT@AEBV?$shared_ptr@$$CBU?$object_state_@V?$allocator@X@std@@@sam_custom_messages@@@mwboost@@X@ros@@UEAA?AV?$shared_ptr@$$CBX@mwboost@@AEBUSubscriptionCallbackHelperDeserializeParams@3@@Z@4ULogLocation@console@3@A 	 DATA
	?__rosconsole_define_location__loc@?6??deserialize@?$SubscriptionCallbackHelperT@AEBV?$shared_ptr@$$CBU?$robot_state_@V?$allocator@X@std@@@sam_custom_messages@@@mwboost@@X@ros@@UEAA?AV?$shared_ptr@$$CBX@mwboost@@AEBUSubscriptionCallbackHelperDeserializeParams@3@@Z@4ULogLocation@console@3@A 	 DATA
	?__rosconsole_define_location__loc@?6??deserialize@?$SubscriptionCallbackHelperT@AEBV?$shared_ptr@$$CBU?$user_prediction_@V?$allocator@X@std@@@sam_custom_messages@@@mwboost@@X@ros@@UEAA?AV?$shared_ptr@$$CBX@mwboost@@AEBUSubscriptionCallbackHelperDeserializeParams@3@@Z@4ULogLocation@console@3@A 	 DATA
	?destroyFcn@?1???R<lambda_9f3a4d0362104a3bede0405fafec76e1>@@QEBA@PEAVNameListImpl@detail@data@matlab@@@Z@4Q6AX0@ZEA 	 DATA
	?destroyFcn@?1???R<lambda_a4c5f97d4391fb4c09103a727c16defd>@@QEBA@PEAVArrayFactoryImpl@impl@data@matlab@@@Z@4Q6AX0@ZEA 	 DATA
	?fcn2@?1???$castTo@V?$TypedArray@C@data@matlab@@$00@detail@data@matlab@@YA?AV?$TypedArray@C@23@V?$shared_ptr@VReferenceImpl@detail@data@matlab@@@std@@@Z@4Q6AHPEAVReferenceImpl@123@H_N@ZEA 	 DATA
	?fcn2@?1???$castTo@V?$TypedArray@I@data@matlab@@$00@detail@data@matlab@@YA?AV?$TypedArray@I@23@V?$shared_ptr@VReferenceImpl@detail@data@matlab@@@std@@@Z@4Q6AHPEAVReferenceImpl@123@H_N@ZEA 	 DATA
	?fcn2@?1???$castTo@V?$TypedArray@N@data@matlab@@$00@detail@data@matlab@@YA?AV?$TypedArray@N@23@V?$shared_ptr@VReferenceImpl@detail@data@matlab@@@std@@@Z@4Q6AHPEAVReferenceImpl@123@H_N@ZEA 	 DATA
	?fcn2@?1???$castTo@V?$TypedArray@VArray@data@matlab@@@data@matlab@@$00@detail@data@matlab@@YA?AV?$TypedArray@VArray@data@matlab@@@23@V?$shared_ptr@VReferenceImpl@detail@data@matlab@@@std@@@Z@4Q6AHPEAVReferenceImpl@123@H_N@ZEA 	 DATA
	?fcn2@?1???$castTo@VCharArray@data@matlab@@$00@detail@data@matlab@@YA?AVCharArray@23@V?$shared_ptr@VReferenceImpl@detail@data@matlab@@@std@@@Z@4Q6AHPEAVReferenceImpl@123@H_N@ZEA 	 DATA
	?fcn2@?1???$castTo@VStructArray@data@matlab@@$00@detail@data@matlab@@YA?AVStructArray@23@V?$shared_ptr@VReferenceImpl@detail@data@matlab@@@std@@@Z@4Q6AHPEAVReferenceImpl@123@H_N@ZEA 	 DATA
	?fcn2@?1???R<lambda_18bde30140702ba20a566c9dc393b8c0>@@QEBA@PEAVArrayImpl@impl@data@matlab@@@Z@4Q6AX0@ZEA 	 DATA
	?fcn2@?1???R<lambda_1cc0c119369d3677f6f4efcaefc6d3c2>@@QEBA@PEAVIteratorImpl@detail@data@matlab@@@Z@4Q6AX0@ZEA 	 DATA
	?fcn2@?1???R<lambda_2615407b98e1f3a14023b76f0dedc381>@@QEBA@PEAVReferenceImpl@detail@data@matlab@@@Z@4Q6AX0@ZEA 	 DATA
	?fcn2@?1???R<lambda_49bc69670bef5877f460780ec06c4b58>@@QEBA@PEAVArrayImpl@impl@data@matlab@@@Z@4Q6AX0@ZEA 	 DATA
	?fcn2@?1???R<lambda_5f4fcb290926e6b66c490376dc93f8ff>@@QEBA@PEAVIteratorImpl@detail@data@matlab@@@Z@4Q6AX0@ZEA 	 DATA
	?fcn2@?1???R<lambda_8717c4bee2934487c85bc1f9f4a10ac1>@@QEBA@PEAVArrayImpl@impl@data@matlab@@@Z@4Q6AX0@ZEA 	 DATA
	?fcn2@?1???R<lambda_f604b6d186b888d49827c9591affdc3a>@@QEBA@PEAVIteratorImpl@detail@data@matlab@@@Z@4Q6AX0@ZEA 	 DATA
	?fcn2@?1??createStructArray@ArrayFactory@data@matlab@@QEAA?AVStructArray@34@V?$vector@_KV?$allocator@_K@std@@@std@@V?$vector@V?$basic_string@DU?$char_traits@D@std@@V?$allocator@D@2@@std@@V?$allocator@V?$basic_string@DU?$char_traits@D@std@@V?$allocator@D@2@@std@@@2@@7@@Z@4Q6AHPEAVArrayFactoryImpl@impl@34@PEA_K_KPEAVNameListImpl@detail@34@PEAPEAVArrayImpl@impl@34@@ZEA 	 DATA
	?fcn2@?4??begin@?$TypedArray@N@data@matlab@@QEBA?AV?$TypedIterator@$$CBN@34@XZ@4Q6APEAVIteratorImpl@detail@34@PEAVArrayImpl@impl@34@_N@ZEA 	 DATA
	?fcn2@?4??begin@?$TypedArray@VStruct@data@matlab@@@data@matlab@@QEBA?AV?$TypedIterator@$$CBVStruct@data@matlab@@@34@XZ@4Q6APEAVIteratorImpl@detail@34@PEAVArrayImpl@impl@34@_N@ZEA 	 DATA
	?fcn2@?4??end@?$TypedArray@VStruct@data@matlab@@@data@matlab@@QEBA?AV?$TypedIterator@$$CBVStruct@data@matlab@@@34@XZ@4Q6APEAVIteratorImpl@detail@34@PEAVArrayImpl@impl@34@_N@ZEA 	 DATA
	?fcn3@?1???A?$TypedArray@VArray@data@matlab@@@data@matlab@@QEAA?AV?$ArrayElementTypedRef@VArray@data@matlab@@$0A@@23@_K@Z@4Q6AHPEAVArrayImpl@impl@23@0PEAPEAVReferenceImpl@detail@23@@ZEA 	 DATA
	?fcn3@?1???A?$TypedArray@VStruct@data@matlab@@@data@matlab@@QEAA?AV?$ArrayElementTypedRef@VStruct@data@matlab@@$0A@@23@_K@Z@4Q6AHPEAVArrayImpl@impl@23@0PEAPEAVReferenceImpl@detail@23@@ZEA 	 DATA
	?fcn3@?1??createStructArray@ArrayFactory@data@matlab@@QEAA?AVStructArray@34@V?$vector@_KV?$allocator@_K@std@@@std@@V?$vector@V?$basic_string@DU?$char_traits@D@std@@V?$allocator@D@2@@std@@V?$allocator@V?$basic_string@DU?$char_traits@D@std@@V?$allocator@D@2@@std@@@2@@7@@Z@4Q6APEAVNameListImpl@detail@34@_K@ZEA 	 DATA
	?fcn@?1???$?9$$CBVStruct@data@matlab@@@?$TypedIterator@$$CBVStruct@data@matlab@@@data@matlab@@QEBA_NAEBV123@@Z@4Q6A_NPEAVIteratorImpl@detail@23@1@ZEA 	 DATA
	?fcn@?1???$?E$$CBVStruct@data@matlab@@@?$TypedIterator@$$CBVStruct@data@matlab@@@data@matlab@@QEAAAEAV123@XZ@4Q6AXPEAVIteratorImpl@detail@23@@ZEA 	 DATA
	?fcn@?1???$castTo@V?$TypedArray@C@data@matlab@@$00@detail@data@matlab@@YA?AV?$TypedArray@C@23@V?$shared_ptr@VReferenceImpl@detail@data@matlab@@@std@@@Z@4Q6AXPEAVReferenceImpl@123@PEAPEAVArrayImpl@impl@23@@ZEA 	 DATA
	?fcn@?1???$castTo@V?$TypedArray@I@data@matlab@@$00@detail@data@matlab@@YA?AV?$TypedArray@I@23@V?$shared_ptr@VReferenceImpl@detail@data@matlab@@@std@@@Z@4Q6AXPEAVReferenceImpl@123@PEAPEAVArrayImpl@impl@23@@ZEA 	 DATA
	?fcn@?1???$castTo@V?$TypedArray@N@data@matlab@@$00@detail@data@matlab@@YA?AV?$TypedArray@N@23@V?$shared_ptr@VReferenceImpl@detail@data@matlab@@@std@@@Z@4Q6AXPEAVReferenceImpl@123@PEAPEAVArrayImpl@impl@23@@ZEA 	 DATA
	?fcn@?1???$castTo@V?$TypedArray@VArray@data@matlab@@@data@matlab@@$00@detail@data@matlab@@YA?AV?$TypedArray@VArray@data@matlab@@@23@V?$shared_ptr@VReferenceImpl@detail@data@matlab@@@std@@@Z@4Q6AXPEAVReferenceImpl@123@PEAPEAVArrayImpl@impl@23@@ZEA 	 DATA
	?fcn@?1???$castTo@VCharArray@data@matlab@@$00@detail@data@matlab@@YA?AVCharArray@23@V?$shared_ptr@VReferenceImpl@detail@data@matlab@@@std@@@Z@4Q6AXPEAVReferenceImpl@123@PEAPEAVArrayImpl@impl@23@@ZEA 	 DATA
	?fcn@?1???$castTo@VStructArray@data@matlab@@$00@detail@data@matlab@@YA?AVStructArray@23@V?$shared_ptr@VReferenceImpl@detail@data@matlab@@@std@@@Z@4Q6AXPEAVReferenceImpl@123@PEAPEAVArrayImpl@impl@23@@ZEA 	 DATA
	?fcn@?1???$createArray@VArray@data@matlab@@@ArrayFactory@data@matlab@@QEAA?AV?$TypedArray@VArray@data@matlab@@@23@V?$vector@_KV?$allocator@_K@std@@@std@@@Z@4Q6AHPEAVArrayFactoryImpl@impl@23@HPEA_K_KPEAPEAVArrayImpl@823@@ZEA 	 DATA
	?fcn@?1???$createArrayWithIterator@V?$_Vector_const_iterator@V?$_Vector_val@U?$_Simple_types@N@std@@@std@@@std@@N@detail@data@matlab@@YA?AV?$TypedArray@N@23@PEAVArrayFactoryImpl@impl@23@V?$vector@_KV?$allocator@_K@std@@@std@@V?$_Vector_const_iterator@V?$_Vector_val@U?$_Simple_types@N@std@@@std@@@8@2@Z@4Q6AH0HPEA_K_KQEBX4PEAPEAVArrayImpl@623@@ZEA 	 DATA
	?fcn@?1???$createScalar@C@ArrayFactory@data@matlab@@QEAA?AV?$TypedArray@C@23@C@Z@4Q6AHPEAVArrayFactoryImpl@impl@23@HPEBXPEAPEAVArrayImpl@623@@ZEA 	 DATA
	?fcn@?1???$createScalar@I@ArrayFactory@data@matlab@@QEAA?AV?$TypedArray@I@23@I@Z@4Q6AHPEAVArrayFactoryImpl@impl@23@HPEBXPEAPEAVArrayImpl@623@@ZEA 	 DATA
	?fcn@?1???$createScalar@N@ArrayFactory@data@matlab@@QEAA?AV?$TypedArray@N@23@N@Z@4Q6AHPEAVArrayFactoryImpl@impl@23@HPEBXPEAPEAVArrayImpl@623@@ZEA 	 DATA
	?fcn@?1???$createTempRef@N$00@?$TypedIterator@$$CBN@data@matlab@@AEAAPEANV?$shared_ptr@VIteratorImpl@detail@data@matlab@@@std@@@Z@4Q6AXPEAVIteratorImpl@detail@23@PEAPEAX@ZEA 	 DATA
	?fcn@?1???$getElement@C@detail@data@matlab@@YAAEACV?$shared_ptr@VReferenceImpl@detail@data@matlab@@@std@@@Z@4Q6AHPEAVReferenceImpl@123@PEAPEAX@ZEA 	 DATA
	?fcn@?1???$getElement@I@detail@data@matlab@@YAAEAIV?$shared_ptr@VReferenceImpl@detail@data@matlab@@@std@@@Z@4Q6AHPEAVReferenceImpl@123@PEAPEAX@ZEA 	 DATA
	?fcn@?1???$getElement@N@detail@data@matlab@@YAAEANV?$shared_ptr@VReferenceImpl@detail@data@matlab@@@std@@@Z@4Q6AHPEAVReferenceImpl@123@PEAPEAX@ZEA 	 DATA
	?fcn@?1???$getRef@$$CBVStruct@data@matlab@@@?$TypedIterator@$$CBVStruct@data@matlab@@@data@matlab@@AEBA?AVStruct@23@XZ@4Q6AXPEAVIteratorImpl@detail@23@PEAPEAVReferenceImpl@623@@ZEA 	 DATA
	?fcn@?1???$setElement@VArray@data@matlab@@@detail@data@matlab@@YAXPEAVReferenceImpl@123@VArray@23@H@Z@4Q6AH0PEAVArrayImpl@impl@23@@ZEA 	 DATA
	?fcn@?1???0?$TypedArray@_S@data@matlab@@QEAA@$$QEAVArray@23@@Z@4Q6AHHHPEA_N@ZEA 	 DATA
	?fcn@?1???0ArrayFactory@data@matlab@@QEAA@XZ@4Q6AHPEAPEAVArrayFactoryImpl@impl@23@@ZEA 	 DATA
	?fcn@?1???A?$ArrayElementTypedRef@VStruct@data@matlab@@$00@data@matlab@@QEAA?AV?$ArrayElementTypedRef@VArray@data@matlab@@$00@23@V?$basic_string@DU?$char_traits@D@std@@V?$allocator@D@2@@std@@@Z@4Q6AHPEAVReferenceImpl@detail@23@PEBD_K@ZEA 	 DATA
	?fcn@?1???A?$ArrayElementTypedRef@VStruct@data@matlab@@$0A@@data@matlab@@QEAA?AV?$ArrayElementTypedRef@VArray@data@matlab@@$0A@@23@V?$basic_string@DU?$char_traits@D@std@@V?$allocator@D@2@@std@@@Z@4Q6AHPEAVReferenceImpl@detail@23@PEBD_K@ZEA 	 DATA
	?fcn@?1???A?$TypedArray@C@data@matlab@@QEBA?AV?$ArrayElementTypedRef@C$00@23@_K@Z@4Q6AHPEAVArrayImpl@impl@23@0PEAPEAVReferenceImpl@detail@23@@ZEA 	 DATA
	?fcn@?1???A?$TypedArray@I@data@matlab@@QEBA?AV?$ArrayElementTypedRef@I$00@23@_K@Z@4Q6AHPEAVArrayImpl@impl@23@0PEAPEAVReferenceImpl@detail@23@@ZEA 	 DATA
	?fcn@?1???A?$TypedArray@N@data@matlab@@QEBA?AV?$ArrayElementTypedRef@N$00@23@_K@Z@4Q6AHPEAVArrayImpl@impl@23@0PEAPEAVReferenceImpl@detail@23@@ZEA 	 DATA
	?fcn@?1???A?$TypedArray@VArray@data@matlab@@@data@matlab@@QEAA?AV?$ArrayElementTypedRef@VArray@data@matlab@@$0A@@23@_K@Z@4Q6A_NPEAVArrayImpl@impl@23@_NPEAPEAV5623@@ZEA 	 DATA
	?fcn@?1???A?$TypedArray@VArray@data@matlab@@@data@matlab@@QEBA?AV?$ArrayElementTypedRef@VArray@data@matlab@@$00@23@_K@Z@4Q6AHPEAVArrayImpl@impl@23@0PEAPEAVReferenceImpl@detail@23@@ZEA 	 DATA
	?fcn@?1???A?$TypedArray@VStruct@data@matlab@@@data@matlab@@QEAA?AV?$ArrayElementTypedRef@VStruct@data@matlab@@$0A@@23@_K@Z@4Q6A_NPEAVArrayImpl@impl@23@_NPEAPEAV5623@@ZEA 	 DATA
	?fcn@?1???A?$TypedArray@VStruct@data@matlab@@@data@matlab@@QEBA?AV?$ArrayElementTypedRef@VStruct@data@matlab@@$00@23@_K@Z@4Q6AHPEAVArrayImpl@impl@23@0PEAPEAVReferenceImpl@detail@23@@ZEA 	 DATA
	?fcn@?1???AStruct@data@matlab@@QEBA?AVArray@23@V?$basic_string@DU?$char_traits@D@std@@V?$allocator@D@2@@std@@@Z@4Q6AHPEAVReferenceImpl@detail@23@PEBD_KPEAPEAVArrayImpl@impl@23@@ZEA 	 DATA
	?fcn@?1??begin@?$TypedArray@N@data@matlab@@QEBA?AV?$TypedIterator@$$CBN@34@XZ@4Q6APEAVIteratorImpl@detail@34@PEAVArrayImpl@impl@34@_N@ZEA 	 DATA
	?fcn@?1??begin@?$TypedArray@VStruct@data@matlab@@@data@matlab@@QEBA?AV?$TypedIterator@$$CBVStruct@data@matlab@@@34@XZ@4Q6APEAVIteratorImpl@detail@34@PEAVArrayImpl@impl@34@_N@ZEA 	 DATA
	?fcn@?1??createCharArray@ArrayFactory@data@matlab@@QEAA?AVCharArray@34@AEBV?$basic_string@DU?$char_traits@D@std@@V?$allocator@D@2@@std@@@Z@4Q6AHPEAVArrayFactoryImpl@impl@34@PEBD_KPEAPEAVArrayImpl@934@@ZEA 	 DATA
	?fcn@?1??end@?$TypedArray@VStruct@data@matlab@@@data@matlab@@QEBA?AV?$TypedIterator@$$CBVStruct@data@matlab@@@34@XZ@4Q6APEAVIteratorImpl@detail@34@PEAVArrayImpl@impl@34@_N@ZEA 	 DATA
	?fcn@?1??getNumberOfElements@Array@data@matlab@@QEBA_KXZ@4Q6A_KPEAVArrayImpl@impl@34@@ZEA 	 DATA
	?fcn@?1??getType@Array@data@matlab@@QEBA?AW4ArrayType@34@XZ@4Q6AHPEAVArrayImpl@impl@34@PEAH@ZEA 	 DATA
	?fcn@?1??toAscii@CharArray@data@matlab@@QEBA?AV?$basic_string@DU?$char_traits@D@std@@V?$allocator@D@2@@std@@XZ@4Q6AHPEAVArrayImpl@impl@34@PEAPEB_SPEA_K@ZEA 	 DATA
	?fcn@?4???0?$TypedIterator@$$CBN@data@matlab@@QEAA@AEBV123@@Z@4Q6APEAVIteratorImpl@detail@23@PEAV4523@@ZEA 	 DATA
	?fcn@?5??createStructArray@ArrayFactory@data@matlab@@QEAA?AVStructArray@34@V?$vector@_KV?$allocator@_K@std@@@std@@V?$vector@V?$basic_string@DU?$char_traits@D@std@@V?$allocator@D@2@@std@@V?$allocator@V?$basic_string@DU?$char_traits@D@std@@V?$allocator@D@2@@std@@@2@@7@@Z@4Q6AXPEAVNameListImpl@detail@34@PEBD_K@ZEA 	 DATA
	?minRelease@?4???$resolveFunction@P6AHHHPEA_N@Z@detail@data@matlab@@YAP6AHHHPEA_N@ZW4FunctionType@123@@Z@4V?$vector@U?$pair@W4FunctionType@detail@data@matlab@@V?$basic_string@DU?$char_traits@D@std@@V?$allocator@D@2@@std@@@std@@V?$allocator@U?$pair@W4FunctionType@detail@data@matlab@@V?$basic_string@DU?$char_traits@D@std@@V?$allocator@D@2@@std@@@std@@@2@@std@@B 	 DATA
	?minRelease@?4???$resolveFunction@P6AHPEAPEAVArrayFactoryImpl@impl@data@matlab@@@Z@detail@data@matlab@@YAP6AHPEAPEAVArrayFactoryImpl@impl@23@@ZW4FunctionType@123@@Z@4V?$vector@U?$pair@W4FunctionType@detail@data@matlab@@V?$basic_string@DU?$char_traits@D@std@@V?$allocator@D@2@@std@@@std@@V?$allocator@U?$pair@W4FunctionType@detail@data@matlab@@V?$basic_string@DU?$char_traits@D@std@@V?$allocator@D@2@@std@@@std@@@2@@std@@B 	 DATA
	?minRelease@?4???$resolveFunction@P6AHPEAVArrayFactoryImpl@impl@data@matlab@@HPEA_K_KPEAPEAVArrayImpl@234@@Z@detail@data@matlab@@YAP6AHPEAVArrayFactoryImpl@impl@23@HPEA_K_KPEAPEAVArrayImpl@523@@ZW4FunctionType@123@@Z@4V?$vector@U?$pair@W4FunctionType@detail@data@matlab@@V?$basic_string@DU?$char_traits@D@std@@V?$allocator@D@2@@std@@@std@@V?$allocator@U?$pair@W4FunctionType@detail@data@matlab@@V?$basic_string@DU?$char_traits@D@std@@V?$allocator@D@2@@std@@@std@@@2@@std@@B 	 DATA
	?minRelease@?4???$resolveFunction@P6AHPEAVArrayFactoryImpl@impl@data@matlab@@HPEA_K_KQEBX2PEAPEAVArrayImpl@234@@Z@detail@data@matlab@@YAP6AHPEAVArrayFactoryImpl@impl@23@HPEA_K_KQEBX2PEAPEAVArrayImpl@523@@ZW4FunctionType@123@@Z@4V?$vector@U?$pair@W4FunctionType@detail@data@matlab@@V?$basic_string@DU?$char_traits@D@std@@V?$allocator@D@2@@std@@@std@@V?$allocator@U?$pair@W4FunctionType@detail@data@matlab@@V?$basic_string@DU?$char_traits@D@std@@V?$allocator@D@2@@std@@@std@@@2@@std@@B 	 DATA
	?minRelease@?4???$resolveFunction@P6AHPEAVArrayFactoryImpl@impl@data@matlab@@HPEBXPEAPEAVArrayImpl@234@@Z@detail@data@matlab@@YAP6AHPEAVArrayFactoryImpl@impl@23@HPEBXPEAPEAVArrayImpl@523@@ZW4FunctionType@123@@Z@4V?$vector@U?$pair@W4FunctionType@detail@data@matlab@@V?$basic_string@DU?$char_traits@D@std@@V?$allocator@D@2@@std@@@std@@V?$allocator@U?$pair@W4FunctionType@detail@data@matlab@@V?$basic_string@DU?$char_traits@D@std@@V?$allocator@D@2@@std@@@std@@@2@@std@@B 	 DATA
	?minRelease@?4???$resolveFunction@P6AHPEAVArrayFactoryImpl@impl@data@matlab@@PEA_K_KPEAVNameListImpl@detail@34@PEAPEAVArrayImpl@234@@Z@detail@data@matlab@@YAP6AHPEAVArrayFactoryImpl@impl@23@PEA_K_KPEAVNameListImpl@123@PEAPEAVArrayImpl@523@@ZW4FunctionType@123@@Z@4V?$vector@U?$pair@W4FunctionType@detail@data@matlab@@V?$basic_string@DU?$char_traits@D@std@@V?$allocator@D@2@@std@@@std@@V?$allocator@U?$pair@W4FunctionType@detail@data@matlab@@V?$basic_string@DU?$char_traits@D@std@@V?$allocator@D@2@@std@@@std@@@2@@std@@B 	 DATA
	?minRelease@?4???$resolveFunction@P6AHPEAVArrayFactoryImpl@impl@data@matlab@@PEBD_KPEAPEAVArrayImpl@234@@Z@detail@data@matlab@@YAP6AHPEAVArrayFactoryImpl@impl@23@PEBD_KPEAPEAVArrayImpl@523@@ZW4FunctionType@123@@Z@4V?$vector@U?$pair@W4FunctionType@detail@data@matlab@@V?$basic_string@DU?$char_traits@D@std@@V?$allocator@D@2@@std@@@std@@V?$allocator@U?$pair@W4FunctionType@detail@data@matlab@@V?$basic_string@DU?$char_traits@D@std@@V?$allocator@D@2@@std@@@std@@@2@@std@@B 	 DATA
	?minRelease@?4???$resolveFunction@P6AHPEAVArrayImpl@impl@data@matlab@@PEAH@Z@detail@data@matlab@@YAP6AHPEAVArrayImpl@impl@23@PEAH@ZW4FunctionType@123@@Z@4V?$vector@U?$pair@W4FunctionType@detail@data@matlab@@V?$basic_string@DU?$char_traits@D@std@@V?$allocator@D@2@@std@@@std@@V?$allocator@U?$pair@W4FunctionType@detail@data@matlab@@V?$basic_string@DU?$char_traits@D@std@@V?$allocator@D@2@@std@@@std@@@2@@std@@B 	 DATA
	?minRelease@?4???$resolveFunction@P6AHPEAVArrayImpl@impl@data@matlab@@PEAPEB_SPEA_K@Z@detail@data@matlab@@YAP6AHPEAVArrayImpl@impl@23@PEAPEB_SPEA_K@ZW4FunctionType@123@@Z@4V?$vector@U?$pair@W4FunctionType@detail@data@matlab@@V?$basic_string@DU?$char_traits@D@std@@V?$allocator@D@2@@std@@@std@@V?$allocator@U?$pair@W4FunctionType@detail@data@matlab@@V?$basic_string@DU?$char_traits@D@std@@V?$allocator@D@2@@std@@@std@@@2@@std@@B 	 DATA
	?minRelease@?4???$resolveFunction@P6AHPEAVArrayImpl@impl@data@matlab@@_KPEAPEAVReferenceImpl@detail@34@@Z@detail@data@matlab@@YAP6AHPEAVArrayImpl@impl@23@_KPEAPEAVReferenceImpl@123@@ZW4FunctionType@123@@Z@4V?$vector@U?$pair@W4FunctionType@detail@data@matlab@@V?$basic_string@DU?$char_traits@D@std@@V?$allocator@D@2@@std@@@std@@V?$allocator@U?$pair@W4FunctionType@detail@data@matlab@@V?$basic_string@DU?$char_traits@D@std@@V?$allocator@D@2@@std@@@std@@@2@@std@@B 	 DATA
	?minRelease@?4???$resolveFunction@P6AHPEAVReferenceImpl@detail@data@matlab@@H_N@Z@detail@data@matlab@@YAP6AHPEAVReferenceImpl@123@H_N@ZW4FunctionType@123@@Z@4V?$vector@U?$pair@W4FunctionType@detail@data@matlab@@V?$basic_string@DU?$char_traits@D@std@@V?$allocator@D@2@@std@@@std@@V?$allocator@U?$pair@W4FunctionType@detail@data@matlab@@V?$basic_string@DU?$char_traits@D@std@@V?$allocator@D@2@@std@@@std@@@2@@std@@B 	 DATA
	?minRelease@?4???$resolveFunction@P6AHPEAVReferenceImpl@detail@data@matlab@@PEAPEAX@Z@detail@data@matlab@@YAP6AHPEAVReferenceImpl@123@PEAPEAX@ZW4FunctionType@123@@Z@4V?$vector@U?$pair@W4FunctionType@detail@data@matlab@@V?$basic_string@DU?$char_traits@D@std@@V?$allocator@D@2@@std@@@std@@V?$allocator@U?$pair@W4FunctionType@detail@data@matlab@@V?$basic_string@DU?$char_traits@D@std@@V?$allocator@D@2@@std@@@std@@@2@@std@@B 	 DATA
	?minRelease@?4???$resolveFunction@P6AHPEAVReferenceImpl@detail@data@matlab@@PEAVArrayImpl@impl@34@@Z@detail@data@matlab@@YAP6AHPEAVReferenceImpl@123@PEAVArrayImpl@impl@23@@ZW4FunctionType@123@@Z@4V?$vector@U?$pair@W4FunctionType@detail@data@matlab@@V?$basic_string@DU?$char_traits@D@std@@V?$allocator@D@2@@std@@@std@@V?$allocator@U?$pair@W4FunctionType@detail@data@matlab@@V?$basic_string@DU?$char_traits@D@std@@V?$allocator@D@2@@std@@@std@@@2@@std@@B 	 DATA
	?minRelease@?4???$resolveFunction@P6AHPEAVReferenceImpl@detail@data@matlab@@PEBD_K@Z@detail@data@matlab@@YAP6AHPEAVReferenceImpl@123@PEBD_K@ZW4FunctionType@123@@Z@4V?$vector@U?$pair@W4FunctionType@detail@data@matlab@@V?$basic_string@DU?$char_traits@D@std@@V?$allocator@D@2@@std@@@std@@V?$allocator@U?$pair@W4FunctionType@detail@data@matlab@@V?$basic_string@DU?$char_traits@D@std@@V?$allocator@D@2@@std@@@std@@@2@@std@@B 	 DATA
	?minRelease@?4???$resolveFunction@P6AHPEAVReferenceImpl@detail@data@matlab@@PEBD_KPEAPEAVArrayImpl@impl@34@@Z@detail@data@matlab@@YAP6AHPEAVReferenceImpl@123@PEBD_KPEAPEAVArrayImpl@impl@23@@ZW4FunctionType@123@@Z@4V?$vector@U?$pair@W4FunctionType@detail@data@matlab@@V?$basic_string@DU?$char_traits@D@std@@V?$allocator@D@2@@std@@@std@@V?$allocator@U?$pair@W4FunctionType@detail@data@matlab@@V?$basic_string@DU?$char_traits@D@std@@V?$allocator@D@2@@std@@@std@@@2@@std@@B 	 DATA
	?minRelease@?4???$resolveFunction@P6APEAVIteratorImpl@detail@data@matlab@@PEAV1234@@Z@detail@data@matlab@@YAP6APEAVIteratorImpl@123@PEAV4123@@ZW4FunctionType@123@@Z@4V?$vector@U?$pair@W4FunctionType@detail@data@matlab@@V?$basic_string@DU?$char_traits@D@std@@V?$allocator@D@2@@std@@@std@@V?$allocator@U?$pair@W4FunctionType@detail@data@matlab@@V?$basic_string@DU?$char_traits@D@std@@V?$allocator@D@2@@std@@@std@@@2@@std@@B 	 DATA
	?minRelease@?4???$resolveFunction@P6APEAVIteratorImpl@detail@data@matlab@@PEAVArrayImpl@impl@34@_N@Z@detail@data@matlab@@YAP6APEAVIteratorImpl@123@PEAVArrayImpl@impl@23@_N@ZW4FunctionType@123@@Z@4V?$vector@U?$pair@W4FunctionType@detail@data@matlab@@V?$basic_string@DU?$char_traits@D@std@@V?$allocator@D@2@@std@@@std@@V?$allocator@U?$pair@W4FunctionType@detail@data@matlab@@V?$basic_string@DU?$char_traits@D@std@@V?$allocator@D@2@@std@@@std@@@2@@std@@B 	 DATA
	?minRelease@?4???$resolveFunction@P6APEAVNameListImpl@detail@data@matlab@@_K@Z@detail@data@matlab@@YAP6APEAVNameListImpl@123@_K@ZW4FunctionType@123@@Z@4V?$vector@U?$pair@W4FunctionType@detail@data@matlab@@V?$basic_string@DU?$char_traits@D@std@@V?$allocator@D@2@@std@@@std@@V?$allocator@U?$pair@W4FunctionType@detail@data@matlab@@V?$basic_string@DU?$char_traits@D@std@@V?$allocator@D@2@@std@@@std@@@2@@std@@B 	 DATA
	?minRelease@?4???$resolveFunction@P6AXPEAVArrayFactoryImpl@impl@data@matlab@@@Z@detail@data@matlab@@YAP6AXPEAVArrayFactoryImpl@impl@23@@ZW4FunctionType@123@@Z@4V?$vector@U?$pair@W4FunctionType@detail@data@matlab@@V?$basic_string@DU?$char_traits@D@std@@V?$allocator@D@2@@std@@@std@@V?$allocator@U?$pair@W4FunctionType@detail@data@matlab@@V?$basic_string@DU?$char_traits@D@std@@V?$allocator@D@2@@std@@@std@@@2@@std@@B 	 DATA
	?minRelease@?4???$resolveFunction@P6AXPEAVArrayImpl@impl@data@matlab@@@Z@detail@data@matlab@@YAP6AXPEAVArrayImpl@impl@23@@ZW4FunctionType@123@@Z@4V?$vector@U?$pair@W4FunctionType@detail@data@matlab@@V?$basic_string@DU?$char_traits@D@std@@V?$allocator@D@2@@std@@@std@@V?$allocator@U?$pair@W4FunctionType@detail@data@matlab@@V?$basic_string@DU?$char_traits@D@std@@V?$allocator@D@2@@std@@@std@@@2@@std@@B 	 DATA
	?minRelease@?4???$resolveFunction@P6AXPEAVIteratorImpl@detail@data@matlab@@@Z@detail@data@matlab@@YAP6AXPEAVIteratorImpl@123@@ZW4FunctionType@123@@Z@4V?$vector@U?$pair@W4FunctionType@detail@data@matlab@@V?$basic_string@DU?$char_traits@D@std@@V?$allocator@D@2@@std@@@std@@V?$allocator@U?$pair@W4FunctionType@detail@data@matlab@@V?$basic_string@DU?$char_traits@D@std@@V?$allocator@D@2@@std@@@std@@@2@@std@@B 	 DATA
	?minRelease@?4???$resolveFunction@P6AXPEAVIteratorImpl@detail@data@matlab@@PEAPEAVReferenceImpl@234@@Z@detail@data@matlab@@YAP6AXPEAVIteratorImpl@123@PEAPEAVReferenceImpl@123@@ZW4FunctionType@123@@Z@4V?$vector@U?$pair@W4FunctionType@detail@data@matlab@@V?$basic_string@DU?$char_traits@D@std@@V?$allocator@D@2@@std@@@std@@V?$allocator@U?$pair@W4FunctionType@detail@data@matlab@@V?$basic_string@DU?$char_traits@D@std@@V?$allocator@D@2@@std@@@std@@@2@@std@@B 	 DATA
	?minRelease@?4???$resolveFunction@P6AXPEAVIteratorImpl@detail@data@matlab@@PEAPEAX@Z@detail@data@matlab@@YAP6AXPEAVIteratorImpl@123@PEAPEAX@ZW4FunctionType@123@@Z@4V?$vector@U?$pair@W4FunctionType@detail@data@matlab@@V?$basic_string@DU?$char_traits@D@std@@V?$allocator@D@2@@std@@@std@@V?$allocator@U?$pair@W4FunctionType@detail@data@matlab@@V?$basic_string@DU?$char_traits@D@std@@V?$allocator@D@2@@std@@@std@@@2@@std@@B 	 DATA
	?minRelease@?4???$resolveFunction@P6AXPEAVNameListImpl@detail@data@matlab@@@Z@detail@data@matlab@@YAP6AXPEAVNameListImpl@123@@ZW4FunctionType@123@@Z@4V?$vector@U?$pair@W4FunctionType@detail@data@matlab@@V?$basic_string@DU?$char_traits@D@std@@V?$allocator@D@2@@std@@@std@@V?$allocator@U?$pair@W4FunctionType@detail@data@matlab@@V?$basic_string@DU?$char_traits@D@std@@V?$allocator@D@2@@std@@@std@@@2@@std@@B 	 DATA
	?minRelease@?4???$resolveFunction@P6AXPEAVNameListImpl@detail@data@matlab@@PEBD_K@Z@detail@data@matlab@@YAP6AXPEAVNameListImpl@123@PEBD_K@ZW4FunctionType@123@@Z@4V?$vector@U?$pair@W4FunctionType@detail@data@matlab@@V?$basic_string@DU?$char_traits@D@std@@V?$allocator@D@2@@std@@@std@@V?$allocator@U?$pair@W4FunctionType@detail@data@matlab@@V?$basic_string@DU?$char_traits@D@std@@V?$allocator@D@2@@std@@@std@@@2@@std@@B 	 DATA
	?minRelease@?4???$resolveFunction@P6AXPEAVReferenceImpl@detail@data@matlab@@@Z@detail@data@matlab@@YAP6AXPEAVReferenceImpl@123@@ZW4FunctionType@123@@Z@4V?$vector@U?$pair@W4FunctionType@detail@data@matlab@@V?$basic_string@DU?$char_traits@D@std@@V?$allocator@D@2@@std@@@std@@V?$allocator@U?$pair@W4FunctionType@detail@data@matlab@@V?$basic_string@DU?$char_traits@D@std@@V?$allocator@D@2@@std@@@std@@@2@@std@@B 	 DATA
	?minRelease@?4???$resolveFunction@P6AXPEAVReferenceImpl@detail@data@matlab@@PEAPEAVArrayImpl@impl@34@@Z@detail@data@matlab@@YAP6AXPEAVReferenceImpl@123@PEAPEAVArrayImpl@impl@23@@ZW4FunctionType@123@@Z@4V?$vector@U?$pair@W4FunctionType@detail@data@matlab@@V?$basic_string@DU?$char_traits@D@std@@V?$allocator@D@2@@std@@@std@@V?$allocator@U?$pair@W4FunctionType@detail@data@matlab@@V?$basic_string@DU?$char_traits@D@std@@V?$allocator@D@2@@std@@@std@@@2@@std@@B 	 DATA
	?minRelease@?4???$resolveFunction@P6A_KPEAVArrayImpl@impl@data@matlab@@@Z@detail@data@matlab@@YAP6A_KPEAVArrayImpl@impl@23@@ZW4FunctionType@123@@Z@4V?$vector@U?$pair@W4FunctionType@detail@data@matlab@@V?$basic_string@DU?$char_traits@D@std@@V?$allocator@D@2@@std@@@std@@V?$allocator@U?$pair@W4FunctionType@detail@data@matlab@@V?$basic_string@DU?$char_traits@D@std@@V?$allocator@D@2@@std@@@std@@@2@@std@@B 	 DATA
	?minRelease@?4???$resolveFunction@P6A_NPEAVArrayImpl@impl@data@matlab@@_NPEAPEAV1234@@Z@detail@data@matlab@@YAP6A_NPEAVArrayImpl@impl@23@_NPEAPEAV4523@@ZW4FunctionType@123@@Z@4V?$vector@U?$pair@W4FunctionType@detail@data@matlab@@V?$basic_string@DU?$char_traits@D@std@@V?$allocator@D@2@@std@@@std@@V?$allocator@U?$pair@W4FunctionType@detail@data@matlab@@V?$basic_string@DU?$char_traits@D@std@@V?$allocator@D@2@@std@@@std@@@2@@std@@B 	 DATA
	?minRelease@?4???$resolveFunction@P6A_NPEAVIteratorImpl@detail@data@matlab@@0@Z@detail@data@matlab@@YAP6A_NPEAVIteratorImpl@123@0@ZW4FunctionType@123@@Z@4V?$vector@U?$pair@W4FunctionType@detail@data@matlab@@V?$basic_string@DU?$char_traits@D@std@@V?$allocator@D@2@@std@@@std@@V?$allocator@U?$pair@W4FunctionType@detail@data@matlab@@V?$basic_string@DU?$char_traits@D@std@@V?$allocator@D@2@@std@@@std@@@2@@std@@B 	 DATA
	??$?0PEAEU?$checked_array_deleter@E@mwboost@@@shared_count@detail@mwboost@@QEAA@PEAEU?$checked_array_deleter@E@2@@Z
	??$?0PEAU?$Object_@V?$allocator@X@std@@@sam_custom_messages@@V?$sp_ms_deleter@U?$Object_@V?$allocator@X@std@@@sam_custom_messages@@@detail@mwboost@@@shared_count@detail@mwboost@@QEAA@PEAU?$Object_@V?$allocator@X@std@@@sam_custom_messages@@U?$sp_inplace_tag@V?$sp_ms_deleter@U?$Object_@V?$allocator@X@std@@@sam_custom_messages@@@detail@mwboost@@@12@@Z
	??$?0PEAU?$capability_@V?$allocator@X@std@@@sam_custom_messages@@V?$sp_ms_deleter@U?$capability_@V?$allocator@X@std@@@sam_custom_messages@@@detail@mwboost@@@shared_count@detail@mwboost@@QEAA@PEAU?$capability_@V?$allocator@X@std@@@sam_custom_messages@@U?$sp_inplace_tag@V?$sp_ms_deleter@U?$capability_@V?$allocator@X@std@@@sam_custom_messages@@@detail@mwboost@@@12@@Z
	??$?0PEAU?$current_action_@V?$allocator@X@std@@@sam_custom_messages@@V?$sp_ms_deleter@U?$current_action_@V?$allocator@X@std@@@sam_custom_messages@@@detail@mwboost@@@shared_count@detail@mwboost@@QEAA@PEAU?$current_action_@V?$allocator@X@std@@@sam_custom_messages@@U?$sp_inplace_tag@V?$sp_ms_deleter@U?$current_action_@V?$allocator@X@std@@@sam_custom_messages@@@detail@mwboost@@@12@@Z
	??$?0PEAU?$diagnostics_@V?$allocator@X@std@@@sam_custom_messages@@V?$sp_ms_deleter@U?$diagnostics_@V?$allocator@X@std@@@sam_custom_messages@@@detail@mwboost@@@shared_count@detail@mwboost@@QEAA@PEAU?$diagnostics_@V?$allocator@X@std@@@sam_custom_messages@@U?$sp_inplace_tag@V?$sp_ms_deleter@U?$diagnostics_@V?$allocator@X@std@@@sam_custom_messages@@@detail@mwboost@@@12@@Z
	??$?0PEAU?$hand_pos_@V?$allocator@X@std@@@sam_custom_messages@@V?$sp_ms_deleter@U?$hand_pos_@V?$allocator@X@std@@@sam_custom_messages@@@detail@mwboost@@@shared_count@detail@mwboost@@QEAA@PEAU?$hand_pos_@V?$allocator@X@std@@@sam_custom_messages@@U?$sp_inplace_tag@V?$sp_ms_deleter@U?$hand_pos_@V?$allocator@X@std@@@sam_custom_messages@@@detail@mwboost@@@12@@Z
	??$?0PEAU?$object_state_@V?$allocator@X@std@@@sam_custom_messages@@V?$sp_ms_deleter@U?$object_state_@V?$allocator@X@std@@@sam_custom_messages@@@detail@mwboost@@@shared_count@detail@mwboost@@QEAA@PEAU?$object_state_@V?$allocator@X@std@@@sam_custom_messages@@U?$sp_inplace_tag@V?$sp_ms_deleter@U?$object_state_@V?$allocator@X@std@@@sam_custom_messages@@@detail@mwboost@@@12@@Z
	??$?0PEAU?$robot_state_@V?$allocator@X@std@@@sam_custom_messages@@V?$sp_ms_deleter@U?$robot_state_@V?$allocator@X@std@@@sam_custom_messages@@@detail@mwboost@@@shared_count@detail@mwboost@@QEAA@PEAU?$robot_state_@V?$allocator@X@std@@@sam_custom_messages@@U?$sp_inplace_tag@V?$sp_ms_deleter@U?$robot_state_@V?$allocator@X@std@@@sam_custom_messages@@@detail@mwboost@@@12@@Z
	??$?0PEAU?$user_prediction_@V?$allocator@X@std@@@sam_custom_messages@@V?$sp_ms_deleter@U?$user_prediction_@V?$allocator@X@std@@@sam_custom_messages@@@detail@mwboost@@@shared_count@detail@mwboost@@QEAA@PEAU?$user_prediction_@V?$allocator@X@std@@@sam_custom_messages@@U?$sp_inplace_tag@V?$sp_ms_deleter@U?$user_prediction_@V?$allocator@X@std@@@sam_custom_messages@@@detail@mwboost@@@12@@Z
	??$?0PEAV?$SubscriptionCallbackHelperT@AEBV?$shared_ptr@$$CBU?$Object_@V?$allocator@X@std@@@sam_custom_messages@@@mwboost@@X@ros@@V?$sp_ms_deleter@V?$SubscriptionCallbackHelperT@AEBV?$shared_ptr@$$CBU?$Object_@V?$allocator@X@std@@@sam_custom_messages@@@mwboost@@X@ros@@@detail@mwboost@@@shared_count@detail@mwboost@@QEAA@PEAV?$SubscriptionCallbackHelperT@AEBV?$shared_ptr@$$CBU?$Object_@V?$allocator@X@std@@@sam_custom_messages@@@mwboost@@X@ros@@U?$sp_inplace_tag@V?$sp_ms_deleter@V?$SubscriptionCallbackHelperT@AEBV?$shared_ptr@$$CBU?$Object_@V?$allocator@X@std@@@sam_custom_messages@@@mwboost@@X@ros@@@detail@mwboost@@@12@@Z
	??$?0PEAV?$SubscriptionCallbackHelperT@AEBV?$shared_ptr@$$CBU?$capability_@V?$allocator@X@std@@@sam_custom_messages@@@mwboost@@X@ros@@V?$sp_ms_deleter@V?$SubscriptionCallbackHelperT@AEBV?$shared_ptr@$$CBU?$capability_@V?$allocator@X@std@@@sam_custom_messages@@@mwboost@@X@ros@@@detail@mwboost@@@shared_count@detail@mwboost@@QEAA@PEAV?$SubscriptionCallbackHelperT@AEBV?$shared_ptr@$$CBU?$capability_@V?$allocator@X@std@@@sam_custom_messages@@@mwboost@@X@ros@@U?$sp_inplace_tag@V?$sp_ms_deleter@V?$SubscriptionCallbackHelperT@AEBV?$shared_ptr@$$CBU?$capability_@V?$allocator@X@std@@@sam_custom_messages@@@mwboost@@X@ros@@@detail@mwboost@@@12@@Z
	??$?0PEAV?$SubscriptionCallbackHelperT@AEBV?$shared_ptr@$$CBU?$current_action_@V?$allocator@X@std@@@sam_custom_messages@@@mwboost@@X@ros@@V?$sp_ms_deleter@V?$SubscriptionCallbackHelperT@AEBV?$shared_ptr@$$CBU?$current_action_@V?$allocator@X@std@@@sam_custom_messages@@@mwboost@@X@ros@@@detail@mwboost@@@shared_count@detail@mwboost@@QEAA@PEAV?$SubscriptionCallbackHelperT@AEBV?$shared_ptr@$$CBU?$current_action_@V?$allocator@X@std@@@sam_custom_messages@@@mwboost@@X@ros@@U?$sp_inplace_tag@V?$sp_ms_deleter@V?$SubscriptionCallbackHelperT@AEBV?$shared_ptr@$$CBU?$current_action_@V?$allocator@X@std@@@sam_custom_messages@@@mwboost@@X@ros@@@detail@mwboost@@@12@@Z
	??$?0PEAV?$SubscriptionCallbackHelperT@AEBV?$shared_ptr@$$CBU?$diagnostics_@V?$allocator@X@std@@@sam_custom_messages@@@mwboost@@X@ros@@V?$sp_ms_deleter@V?$SubscriptionCallbackHelperT@AEBV?$shared_ptr@$$CBU?$diagnostics_@V?$allocator@X@std@@@sam_custom_messages@@@mwboost@@X@ros@@@detail@mwboost@@@shared_count@detail@mwboost@@QEAA@PEAV?$SubscriptionCallbackHelperT@AEBV?$shared_ptr@$$CBU?$diagnostics_@V?$allocator@X@std@@@sam_custom_messages@@@mwboost@@X@ros@@U?$sp_inplace_tag@V?$sp_ms_deleter@V?$SubscriptionCallbackHelperT@AEBV?$shared_ptr@$$CBU?$diagnostics_@V?$allocator@X@std@@@sam_custom_messages@@@mwboost@@X@ros@@@detail@mwboost@@@12@@Z
	??$?0PEAV?$SubscriptionCallbackHelperT@AEBV?$shared_ptr@$$CBU?$hand_pos_@V?$allocator@X@std@@@sam_custom_messages@@@mwboost@@X@ros@@V?$sp_ms_deleter@V?$SubscriptionCallbackHelperT@AEBV?$shared_ptr@$$CBU?$hand_pos_@V?$allocator@X@std@@@sam_custom_messages@@@mwboost@@X@ros@@@detail@mwboost@@@shared_count@detail@mwboost@@QEAA@PEAV?$SubscriptionCallbackHelperT@AEBV?$shared_ptr@$$CBU?$hand_pos_@V?$allocator@X@std@@@sam_custom_messages@@@mwboost@@X@ros@@U?$sp_inplace_tag@V?$sp_ms_deleter@V?$SubscriptionCallbackHelperT@AEBV?$shared_ptr@$$CBU?$hand_pos_@V?$allocator@X@std@@@sam_custom_messages@@@mwboost@@X@ros@@@detail@mwboost@@@12@@Z
	??$?0PEAV?$SubscriptionCallbackHelperT@AEBV?$shared_ptr@$$CBU?$object_state_@V?$allocator@X@std@@@sam_custom_messages@@@mwboost@@X@ros@@V?$sp_ms_deleter@V?$SubscriptionCallbackHelperT@AEBV?$shared_ptr@$$CBU?$object_state_@V?$allocator@X@std@@@sam_custom_messages@@@mwboost@@X@ros@@@detail@mwboost@@@shared_count@detail@mwboost@@QEAA@PEAV?$SubscriptionCallbackHelperT@AEBV?$shared_ptr@$$CBU?$object_state_@V?$allocator@X@std@@@sam_custom_messages@@@mwboost@@X@ros@@U?$sp_inplace_tag@V?$sp_ms_deleter@V?$SubscriptionCallbackHelperT@AEBV?$shared_ptr@$$CBU?$object_state_@V?$allocator@X@std@@@sam_custom_messages@@@mwboost@@X@ros@@@detail@mwboost@@@12@@Z
	??$?0PEAV?$SubscriptionCallbackHelperT@AEBV?$shared_ptr@$$CBU?$robot_state_@V?$allocator@X@std@@@sam_custom_messages@@@mwboost@@X@ros@@V?$sp_ms_deleter@V?$SubscriptionCallbackHelperT@AEBV?$shared_ptr@$$CBU?$robot_state_@V?$allocator@X@std@@@sam_custom_messages@@@mwboost@@X@ros@@@detail@mwboost@@@shared_count@detail@mwboost@@QEAA@PEAV?$SubscriptionCallbackHelperT@AEBV?$shared_ptr@$$CBU?$robot_state_@V?$allocator@X@std@@@sam_custom_messages@@@mwboost@@X@ros@@U?$sp_inplace_tag@V?$sp_ms_deleter@V?$SubscriptionCallbackHelperT@AEBV?$shared_ptr@$$CBU?$robot_state_@V?$allocator@X@std@@@sam_custom_messages@@@mwboost@@X@ros@@@detail@mwboost@@@12@@Z
	??$?0PEAV?$SubscriptionCallbackHelperT@AEBV?$shared_ptr@$$CBU?$user_prediction_@V?$allocator@X@std@@@sam_custom_messages@@@mwboost@@X@ros@@V?$sp_ms_deleter@V?$SubscriptionCallbackHelperT@AEBV?$shared_ptr@$$CBU?$user_prediction_@V?$allocator@X@std@@@sam_custom_messages@@@mwboost@@X@ros@@@detail@mwboost@@@shared_count@detail@mwboost@@QEAA@PEAV?$SubscriptionCallbackHelperT@AEBV?$shared_ptr@$$CBU?$user_prediction_@V?$allocator@X@std@@@sam_custom_messages@@@mwboost@@X@ros@@U?$sp_inplace_tag@V?$sp_ms_deleter@V?$SubscriptionCallbackHelperT@AEBV?$shared_ptr@$$CBU?$user_prediction_@V?$allocator@X@std@@@sam_custom_messages@@@mwboost@@X@ros@@@detail@mwboost@@@12@@Z
	??$?0U?$Object_@V?$allocator@X@std@@@sam_custom_messages@@@?$shared_ptr@$$CBU?$Object_@V?$allocator@X@std@@@sam_custom_messages@@@mwboost@@QEAA@AEBV?$shared_ptr@U?$Object_@V?$allocator@X@std@@@sam_custom_messages@@@1@Usp_empty@detail@1@@Z
	??$?0U?$Object_@V?$allocator@X@std@@@sam_custom_messages@@@?$shared_ptr@$$CBX@mwboost@@QEAA@AEBV?$shared_ptr@U?$Object_@V?$allocator@X@std@@@sam_custom_messages@@@1@Usp_empty@detail@1@@Z
	??$?0U?$capability_@V?$allocator@X@std@@@sam_custom_messages@@@?$shared_ptr@$$CBU?$capability_@V?$allocator@X@std@@@sam_custom_messages@@@mwboost@@QEAA@AEBV?$shared_ptr@U?$capability_@V?$allocator@X@std@@@sam_custom_messages@@@1@Usp_empty@detail@1@@Z
	??$?0U?$capability_@V?$allocator@X@std@@@sam_custom_messages@@@?$shared_ptr@$$CBX@mwboost@@QEAA@AEBV?$shared_ptr@U?$capability_@V?$allocator@X@std@@@sam_custom_messages@@@1@Usp_empty@detail@1@@Z
	??$?0U?$current_action_@V?$allocator@X@std@@@sam_custom_messages@@@?$shared_ptr@$$CBU?$current_action_@V?$allocator@X@std@@@sam_custom_messages@@@mwboost@@QEAA@AEBV?$shared_ptr@U?$current_action_@V?$allocator@X@std@@@sam_custom_messages@@@1@Usp_empty@detail@1@@Z
	??$?0U?$current_action_@V?$allocator@X@std@@@sam_custom_messages@@@?$shared_ptr@$$CBX@mwboost@@QEAA@AEBV?$shared_ptr@U?$current_action_@V?$allocator@X@std@@@sam_custom_messages@@@1@Usp_empty@detail@1@@Z
	??$?0U?$diagnostics_@V?$allocator@X@std@@@sam_custom_messages@@@?$shared_ptr@$$CBU?$diagnostics_@V?$allocator@X@std@@@sam_custom_messages@@@mwboost@@QEAA@AEBV?$shared_ptr@U?$diagnostics_@V?$allocator@X@std@@@sam_custom_messages@@@1@Usp_empty@detail@1@@Z
	??$?0U?$diagnostics_@V?$allocator@X@std@@@sam_custom_messages@@@?$shared_ptr@$$CBX@mwboost@@QEAA@AEBV?$shared_ptr@U?$diagnostics_@V?$allocator@X@std@@@sam_custom_messages@@@1@Usp_empty@detail@1@@Z
	??$?0U?$hand_pos_@V?$allocator@X@std@@@sam_custom_messages@@@?$shared_ptr@$$CBU?$hand_pos_@V?$allocator@X@std@@@sam_custom_messages@@@mwboost@@QEAA@AEBV?$shared_ptr@U?$hand_pos_@V?$allocator@X@std@@@sam_custom_messages@@@1@Usp_empty@detail@1@@Z
	??$?0U?$hand_pos_@V?$allocator@X@std@@@sam_custom_messages@@@?$shared_ptr@$$CBX@mwboost@@QEAA@AEBV?$shared_ptr@U?$hand_pos_@V?$allocator@X@std@@@sam_custom_messages@@@1@Usp_empty@detail@1@@Z
	??$?0U?$object_state_@V?$allocator@X@std@@@sam_custom_messages@@@?$shared_ptr@$$CBU?$object_state_@V?$allocator@X@std@@@sam_custom_messages@@@mwboost@@QEAA@AEBV?$shared_ptr@U?$object_state_@V?$allocator@X@std@@@sam_custom_messages@@@1@Usp_empty@detail@1@@Z
	??$?0U?$object_state_@V?$allocator@X@std@@@sam_custom_messages@@@?$shared_ptr@$$CBX@mwboost@@QEAA@AEBV?$shared_ptr@U?$object_state_@V?$allocator@X@std@@@sam_custom_messages@@@1@Usp_empty@detail@1@@Z
	??$?0U?$robot_state_@V?$allocator@X@std@@@sam_custom_messages@@@?$shared_ptr@$$CBU?$robot_state_@V?$allocator@X@std@@@sam_custom_messages@@@mwboost@@QEAA@AEBV?$shared_ptr@U?$robot_state_@V?$allocator@X@std@@@sam_custom_messages@@@1@Usp_empty@detail@1@@Z
	??$?0U?$robot_state_@V?$allocator@X@std@@@sam_custom_messages@@@?$shared_ptr@$$CBX@mwboost@@QEAA@AEBV?$shared_ptr@U?$robot_state_@V?$allocator@X@std@@@sam_custom_messages@@@1@Usp_empty@detail@1@@Z
	??$?0U?$user_prediction_@V?$allocator@X@std@@@sam_custom_messages@@@?$shared_ptr@$$CBU?$user_prediction_@V?$allocator@X@std@@@sam_custom_messages@@@mwboost@@QEAA@AEBV?$shared_ptr@U?$user_prediction_@V?$allocator@X@std@@@sam_custom_messages@@@1@Usp_empty@detail@1@@Z
	??$?0U?$user_prediction_@V?$allocator@X@std@@@sam_custom_messages@@@?$shared_ptr@$$CBX@mwboost@@QEAA@AEBV?$shared_ptr@U?$user_prediction_@V?$allocator@X@std@@@sam_custom_messages@@@1@Usp_empty@detail@1@@Z
	??$?0V?$function@$$A6AXAEBV?$shared_ptr@$$CBU?$Object_@V?$allocator@X@std@@@sam_custom_messages@@@mwboost@@@Z@mwboost@@@?$function@$$A6AXV?$shared_ptr@$$CBU?$Object_@V?$allocator@X@std@@@sam_custom_messages@@@mwboost@@@Z@mwboost@@QEAA@V?$function@$$A6AXAEBV?$shared_ptr@$$CBU?$Object_@V?$allocator@X@std@@@sam_custom_messages@@@mwboost@@@Z@1@H@Z
	??$?0V?$function@$$A6AXAEBV?$shared_ptr@$$CBU?$capability_@V?$allocator@X@std@@@sam_custom_messages@@@mwboost@@@Z@mwboost@@@?$function@$$A6AXV?$shared_ptr@$$CBU?$capability_@V?$allocator@X@std@@@sam_custom_messages@@@mwboost@@@Z@mwboost@@QEAA@V?$function@$$A6AXAEBV?$shared_ptr@$$CBU?$capability_@V?$allocator@X@std@@@sam_custom_messages@@@mwboost@@@Z@1@H@Z
	??$?0V?$function@$$A6AXAEBV?$shared_ptr@$$CBU?$current_action_@V?$allocator@X@std@@@sam_custom_messages@@@mwboost@@@Z@mwboost@@@?$function@$$A6AXV?$shared_ptr@$$CBU?$current_action_@V?$allocator@X@std@@@sam_custom_messages@@@mwboost@@@Z@mwboost@@QEAA@V?$function@$$A6AXAEBV?$shared_ptr@$$CBU?$current_action_@V?$allocator@X@std@@@sam_custom_messages@@@mwboost@@@Z@1@H@Z
	??$?0V?$function@$$A6AXAEBV?$shared_ptr@$$CBU?$diagnostics_@V?$allocator@X@std@@@sam_custom_messages@@@mwboost@@@Z@mwboost@@@?$function@$$A6AXV?$shared_ptr@$$CBU?$diagnostics_@V?$allocator@X@std@@@sam_custom_messages@@@mwboost@@@Z@mwboost@@QEAA@V?$function@$$A6AXAEBV?$shared_ptr@$$CBU?$diagnostics_@V?$allocator@X@std@@@sam_custom_messages@@@mwboost@@@Z@1@H@Z
	??$?0V?$function@$$A6AXAEBV?$shared_ptr@$$CBU?$hand_pos_@V?$allocator@X@std@@@sam_custom_messages@@@mwboost@@@Z@mwboost@@@?$function@$$A6AXV?$shared_ptr@$$CBU?$hand_pos_@V?$allocator@X@std@@@sam_custom_messages@@@mwboost@@@Z@mwboost@@QEAA@V?$function@$$A6AXAEBV?$shared_ptr@$$CBU?$hand_pos_@V?$allocator@X@std@@@sam_custom_messages@@@mwboost@@@Z@1@H@Z
	??$?0V?$function@$$A6AXAEBV?$shared_ptr@$$CBU?$object_state_@V?$allocator@X@std@@@sam_custom_messages@@@mwboost@@@Z@mwboost@@@?$function@$$A6AXV?$shared_ptr@$$CBU?$object_state_@V?$allocator@X@std@@@sam_custom_messages@@@mwboost@@@Z@mwboost@@QEAA@V?$function@$$A6AXAEBV?$shared_ptr@$$CBU?$object_state_@V?$allocator@X@std@@@sam_custom_messages@@@mwboost@@@Z@1@H@Z
	??$?0V?$function@$$A6AXAEBV?$shared_ptr@$$CBU?$robot_state_@V?$allocator@X@std@@@sam_custom_messages@@@mwboost@@@Z@mwboost@@@?$function@$$A6AXV?$shared_ptr@$$CBU?$robot_state_@V?$allocator@X@std@@@sam_custom_messages@@@mwboost@@@Z@mwboost@@QEAA@V?$function@$$A6AXAEBV?$shared_ptr@$$CBU?$robot_state_@V?$allocator@X@std@@@sam_custom_messages@@@mwboost@@@Z@1@H@Z
	??$?0V?$function@$$A6AXAEBV?$shared_ptr@$$CBU?$user_prediction_@V?$allocator@X@std@@@sam_custom_messages@@@mwboost@@@Z@mwboost@@@?$function@$$A6AXV?$shared_ptr@$$CBU?$user_prediction_@V?$allocator@X@std@@@sam_custom_messages@@@mwboost@@@Z@mwboost@@QEAA@V?$function@$$A6AXAEBV?$shared_ptr@$$CBU?$user_prediction_@V?$allocator@X@std@@@sam_custom_messages@@@mwboost@@@Z@1@H@Z
	??$?0W4FunctionType@detail@data@matlab@@AEAY06$$CBD$0A@@?$pair@W4FunctionType@detail@data@matlab@@V?$basic_string@DU?$char_traits@D@std@@V?$allocator@D@2@@std@@@std@@QEAA@$$QEAW4FunctionType@detail@data@matlab@@AEAY06$$CBD@Z
	??$?4U?$Object_@V?$allocator@X@std@@@sam_custom_messages@@@?$shared_ptr@$$CBX@mwboost@@QEAAAEAV01@AEBV?$shared_ptr@U?$Object_@V?$allocator@X@std@@@sam_custom_messages@@@1@@Z
	??$?4U?$capability_@V?$allocator@X@std@@@sam_custom_messages@@@?$shared_ptr@$$CBX@mwboost@@QEAAAEAV01@AEBV?$shared_ptr@U?$capability_@V?$allocator@X@std@@@sam_custom_messages@@@1@@Z
	??$?4U?$current_action_@V?$allocator@X@std@@@sam_custom_messages@@@?$shared_ptr@$$CBX@mwboost@@QEAAAEAV01@AEBV?$shared_ptr@U?$current_action_@V?$allocator@X@std@@@sam_custom_messages@@@1@@Z
	??$?4U?$diagnostics_@V?$allocator@X@std@@@sam_custom_messages@@@?$shared_ptr@$$CBX@mwboost@@QEAAAEAV01@AEBV?$shared_ptr@U?$diagnostics_@V?$allocator@X@std@@@sam_custom_messages@@@1@@Z
	??$?4U?$hand_pos_@V?$allocator@X@std@@@sam_custom_messages@@@?$shared_ptr@$$CBX@mwboost@@QEAAAEAV01@AEBV?$shared_ptr@U?$hand_pos_@V?$allocator@X@std@@@sam_custom_messages@@@1@@Z
	??$?4U?$object_state_@V?$allocator@X@std@@@sam_custom_messages@@@?$shared_ptr@$$CBX@mwboost@@QEAAAEAV01@AEBV?$shared_ptr@U?$object_state_@V?$allocator@X@std@@@sam_custom_messages@@@1@@Z
	??$?4U?$robot_state_@V?$allocator@X@std@@@sam_custom_messages@@@?$shared_ptr@$$CBX@mwboost@@QEAAAEAV01@AEBV?$shared_ptr@U?$robot_state_@V?$allocator@X@std@@@sam_custom_messages@@@1@@Z
	??$?4U?$user_prediction_@V?$allocator@X@std@@@sam_custom_messages@@@?$shared_ptr@$$CBX@mwboost@@QEAAAEAV01@AEBV?$shared_ptr@U?$user_prediction_@V?$allocator@X@std@@@sam_custom_messages@@@1@@Z
	??$?4V?$SubscriptionCallbackHelperT@AEBV?$shared_ptr@$$CBU?$Object_@V?$allocator@X@std@@@sam_custom_messages@@@mwboost@@X@ros@@@?$shared_ptr@VSubscriptionCallbackHelper@ros@@@mwboost@@QEAAAEAV01@$$QEAV?$shared_ptr@V?$SubscriptionCallbackHelperT@AEBV?$shared_ptr@$$CBU?$Object_@V?$allocator@X@std@@@sam_custom_messages@@@mwboost@@X@ros@@@1@@Z
	??$?4V?$SubscriptionCallbackHelperT@AEBV?$shared_ptr@$$CBU?$capability_@V?$allocator@X@std@@@sam_custom_messages@@@mwboost@@X@ros@@@?$shared_ptr@VSubscriptionCallbackHelper@ros@@@mwboost@@QEAAAEAV01@$$QEAV?$shared_ptr@V?$SubscriptionCallbackHelperT@AEBV?$shared_ptr@$$CBU?$capability_@V?$allocator@X@std@@@sam_custom_messages@@@mwboost@@X@ros@@@1@@Z
	??$?4V?$SubscriptionCallbackHelperT@AEBV?$shared_ptr@$$CBU?$current_action_@V?$allocator@X@std@@@sam_custom_messages@@@mwboost@@X@ros@@@?$shared_ptr@VSubscriptionCallbackHelper@ros@@@mwboost@@QEAAAEAV01@$$QEAV?$shared_ptr@V?$SubscriptionCallbackHelperT@AEBV?$shared_ptr@$$CBU?$current_action_@V?$allocator@X@std@@@sam_custom_messages@@@mwboost@@X@ros@@@1@@Z
	??$?4V?$SubscriptionCallbackHelperT@AEBV?$shared_ptr@$$CBU?$diagnostics_@V?$allocator@X@std@@@sam_custom_messages@@@mwboost@@X@ros@@@?$shared_ptr@VSubscriptionCallbackHelper@ros@@@mwboost@@QEAAAEAV01@$$QEAV?$shared_ptr@V?$SubscriptionCallbackHelperT@AEBV?$shared_ptr@$$CBU?$diagnostics_@V?$allocator@X@std@@@sam_custom_messages@@@mwboost@@X@ros@@@1@@Z
	??$?4V?$SubscriptionCallbackHelperT@AEBV?$shared_ptr@$$CBU?$hand_pos_@V?$allocator@X@std@@@sam_custom_messages@@@mwboost@@X@ros@@@?$shared_ptr@VSubscriptionCallbackHelper@ros@@@mwboost@@QEAAAEAV01@$$QEAV?$shared_ptr@V?$SubscriptionCallbackHelperT@AEBV?$shared_ptr@$$CBU?$hand_pos_@V?$allocator@X@std@@@sam_custom_messages@@@mwboost@@X@ros@@@1@@Z
	??$?4V?$SubscriptionCallbackHelperT@AEBV?$shared_ptr@$$CBU?$object_state_@V?$allocator@X@std@@@sam_custom_messages@@@mwboost@@X@ros@@@?$shared_ptr@VSubscriptionCallbackHelper@ros@@@mwboost@@QEAAAEAV01@$$QEAV?$shared_ptr@V?$SubscriptionCallbackHelperT@AEBV?$shared_ptr@$$CBU?$object_state_@V?$allocator@X@std@@@sam_custom_messages@@@mwboost@@X@ros@@@1@@Z
	??$?4V?$SubscriptionCallbackHelperT@AEBV?$shared_ptr@$$CBU?$robot_state_@V?$allocator@X@std@@@sam_custom_messages@@@mwboost@@X@ros@@@?$shared_ptr@VSubscriptionCallbackHelper@ros@@@mwboost@@QEAAAEAV01@$$QEAV?$shared_ptr@V?$SubscriptionCallbackHelperT@AEBV?$shared_ptr@$$CBU?$robot_state_@V?$allocator@X@std@@@sam_custom_messages@@@mwboost@@X@ros@@@1@@Z
	??$?4V?$SubscriptionCallbackHelperT@AEBV?$shared_ptr@$$CBU?$user_prediction_@V?$allocator@X@std@@@sam_custom_messages@@@mwboost@@X@ros@@@?$shared_ptr@VSubscriptionCallbackHelper@ros@@@mwboost@@QEAAAEAV01@$$QEAV?$shared_ptr@V?$SubscriptionCallbackHelperT@AEBV?$shared_ptr@$$CBU?$user_prediction_@V?$allocator@X@std@@@sam_custom_messages@@@mwboost@@X@ros@@@1@@Z
	??$?9$$CBVStruct@data@matlab@@@?$TypedIterator@$$CBVStruct@data@matlab@@@data@matlab@@QEBA_NAEBV012@@Z
	??$?BV?$TypedArray@C@data@matlab@@VArray@12@X@?$ArrayElementTypedRef@VArray@data@matlab@@$00@data@matlab@@QEBA?AV?$TypedArray@C@12@XZ
	??$?BV?$TypedArray@I@data@matlab@@VArray@12@X@?$ArrayElementTypedRef@VArray@data@matlab@@$00@data@matlab@@QEBA?AV?$TypedArray@I@12@XZ
	??$?BV?$TypedArray@N@data@matlab@@VArray@12@X@?$ArrayElementTypedRef@VArray@data@matlab@@$00@data@matlab@@QEBA?AV?$TypedArray@N@12@XZ
	??$?BV?$TypedArray@VArray@data@matlab@@@data@matlab@@VArray@12@X@?$ArrayElementTypedRef@VArray@data@matlab@@$00@data@matlab@@QEBA?AV?$TypedArray@VArray@data@matlab@@@12@XZ
	??$?BVCharArray@data@matlab@@VArray@12@X@?$ArrayElementTypedRef@VArray@data@matlab@@$00@data@matlab@@QEBA?AVCharArray@12@XZ
	??$?BVStructArray@data@matlab@@VArray@12@X@?$ArrayElementTypedRef@VArray@data@matlab@@$00@data@matlab@@QEBA?AVStructArray@12@XZ
	??$?E$$CBVStruct@data@matlab@@@?$TypedIterator@$$CBVStruct@data@matlab@@@data@matlab@@QEAAAEAV012@XZ
	??$?H$$CBN@?$TypedIterator@$$CBN@data@matlab@@QEBA?AV012@_J@Z
	??$?HDU?$char_traits@D@std@@V?$allocator@D@1@@std@@YA?AV?$basic_string@DU?$char_traits@D@std@@V?$allocator@D@2@@0@$$QEAV10@0@Z
	??$?RAEBV?$shared_ptr@$$CBU?$Object_@V?$allocator@X@std@@@sam_custom_messages@@@mwboost@@@?$bind_t@XV?$mf1@XVsam_custom_messages_msg_Object_subscriber@@AEBV?$shared_ptr@$$CBU?$Object_@V?$allocator@X@std@@@sam_custom_messages@@@mwboost@@@_mfi@mwboost@@V?$list2@V?$value@PEAVsam_custom_messages_msg_Object_subscriber@@@_bi@mwboost@@U?$arg@$00@3@@_bi@3@@_bi@mwboost@@QEAAXAEBV?$shared_ptr@$$CBU?$Object_@V?$allocator@X@std@@@sam_custom_messages@@@2@@Z
	??$?RAEBV?$shared_ptr@$$CBU?$capability_@V?$allocator@X@std@@@sam_custom_messages@@@mwboost@@@?$bind_t@XV?$mf1@XVsam_custom_messages_msg_capability_subscriber@@AEBV?$shared_ptr@$$CBU?$capability_@V?$allocator@X@std@@@sam_custom_messages@@@mwboost@@@_mfi@mwboost@@V?$list2@V?$value@PEAVsam_custom_messages_msg_capability_subscriber@@@_bi@mwboost@@U?$arg@$00@3@@_bi@3@@_bi@mwboost@@QEAAXAEBV?$shared_ptr@$$CBU?$capability_@V?$allocator@X@std@@@sam_custom_messages@@@2@@Z
	??$?RAEBV?$shared_ptr@$$CBU?$current_action_@V?$allocator@X@std@@@sam_custom_messages@@@mwboost@@@?$bind_t@XV?$mf1@XVsam_custom_messages_msg_current_action_subscriber@@AEBV?$shared_ptr@$$CBU?$current_action_@V?$allocator@X@std@@@sam_custom_messages@@@mwboost@@@_mfi@mwboost@@V?$list2@V?$value@PEAVsam_custom_messages_msg_current_action_subscriber@@@_bi@mwboost@@U?$arg@$00@3@@_bi@3@@_bi@mwboost@@QEAAXAEBV?$shared_ptr@$$CBU?$current_action_@V?$allocator@X@std@@@sam_custom_messages@@@2@@Z
	??$?RAEBV?$shared_ptr@$$CBU?$diagnostics_@V?$allocator@X@std@@@sam_custom_messages@@@mwboost@@@?$bind_t@XV?$mf1@XVsam_custom_messages_msg_diagnostics_subscriber@@AEBV?$shared_ptr@$$CBU?$diagnostics_@V?$allocator@X@std@@@sam_custom_messages@@@mwboost@@@_mfi@mwboost@@V?$list2@V?$value@PEAVsam_custom_messages_msg_diagnostics_subscriber@@@_bi@mwboost@@U?$arg@$00@3@@_bi@3@@_bi@mwboost@@QEAAXAEBV?$shared_ptr@$$CBU?$diagnostics_@V?$allocator@X@std@@@sam_custom_messages@@@2@@Z
	??$?RAEBV?$shared_ptr@$$CBU?$hand_pos_@V?$allocator@X@std@@@sam_custom_messages@@@mwboost@@@?$bind_t@XV?$mf1@XVsam_custom_messages_msg_hand_pos_subscriber@@AEBV?$shared_ptr@$$CBU?$hand_pos_@V?$allocator@X@std@@@sam_custom_messages@@@mwboost@@@_mfi@mwboost@@V?$list2@V?$value@PEAVsam_custom_messages_msg_hand_pos_subscriber@@@_bi@mwboost@@U?$arg@$00@3@@_bi@3@@_bi@mwboost@@QEAAXAEBV?$shared_ptr@$$CBU?$hand_pos_@V?$allocator@X@std@@@sam_custom_messages@@@2@@Z
	??$?RAEBV?$shared_ptr@$$CBU?$object_state_@V?$allocator@X@std@@@sam_custom_messages@@@mwboost@@@?$bind_t@XV?$mf1@XVsam_custom_messages_msg_object_state_subscriber@@AEBV?$shared_ptr@$$CBU?$object_state_@V?$allocator@X@std@@@sam_custom_messages@@@mwboost@@@_mfi@mwboost@@V?$list2@V?$value@PEAVsam_custom_messages_msg_object_state_subscriber@@@_bi@mwboost@@U?$arg@$00@3@@_bi@3@@_bi@mwboost@@QEAAXAEBV?$shared_ptr@$$CBU?$object_state_@V?$allocator@X@std@@@sam_custom_messages@@@2@@Z
	??$?RAEBV?$shared_ptr@$$CBU?$robot_state_@V?$allocator@X@std@@@sam_custom_messages@@@mwboost@@@?$bind_t@XV?$mf1@XVsam_custom_messages_msg_robot_state_subscriber@@AEBV?$shared_ptr@$$CBU?$robot_state_@V?$allocator@X@std@@@sam_custom_messages@@@mwboost@@@_mfi@mwboost@@V?$list2@V?$value@PEAVsam_custom_messages_msg_robot_state_subscriber@@@_bi@mwboost@@U?$arg@$00@3@@_bi@3@@_bi@mwboost@@QEAAXAEBV?$shared_ptr@$$CBU?$robot_state_@V?$allocator@X@std@@@sam_custom_messages@@@2@@Z
	??$?RAEBV?$shared_ptr@$$CBU?$user_prediction_@V?$allocator@X@std@@@sam_custom_messages@@@mwboost@@@?$bind_t@XV?$mf1@XVsam_custom_messages_msg_user_prediction_subscriber@@AEBV?$shared_ptr@$$CBU?$user_prediction_@V?$allocator@X@std@@@sam_custom_messages@@@mwboost@@@_mfi@mwboost@@V?$list2@V?$value@PEAVsam_custom_messages_msg_user_prediction_subscriber@@@_bi@mwboost@@U?$arg@$00@3@@_bi@3@@_bi@mwboost@@QEAAXAEBV?$shared_ptr@$$CBU?$user_prediction_@V?$allocator@X@std@@@sam_custom_messages@@@2@@Z
	??$_Allocate_manually_vector_aligned@U_Default_allocate_traits@std@@@std@@YAPEAX_K@Z
	??$_Assign_range@PEAN@?$vector@NV?$allocator@N@std@@@std@@AEAAXPEAN0Uforward_iterator_tag@1@@Z
	??$_Assign_range@PEAU?$KeyValue_@V?$allocator@X@std@@@diagnostic_msgs@@@?$vector@U?$KeyValue_@V?$allocator@X@std@@@diagnostic_msgs@@V?$allocator@U?$KeyValue_@V?$allocator@X@std@@@diagnostic_msgs@@@std@@@std@@AEAAXPEAU?$KeyValue_@V?$allocator@X@std@@@diagnostic_msgs@@0Uforward_iterator_tag@1@@Z
	??$_Assign_range@PEAV?$basic_string@DU?$char_traits@D@std@@V?$allocator@D@2@@std@@@?$vector@V?$basic_string@DU?$char_traits@D@std@@V?$allocator@D@2@@std@@V?$allocator@V?$basic_string@DU?$char_traits@D@std@@V?$allocator@D@2@@std@@@2@@std@@AEAAXPEAV?$basic_string@DU?$char_traits@D@std@@V?$allocator@D@2@@1@0Uforward_iterator_tag@1@@Z
	??$_Buynode@AEBUpiecewise_construct_t@std@@V?$tuple@AEBV?$basic_string@DU?$char_traits@D@std@@V?$allocator@D@2@@std@@@2@V?$tuple@$$V@2@@?$_Tree_comp_alloc@V?$_Tmap_traits@V?$basic_string@DU?$char_traits@D@std@@V?$allocator@D@2@@std@@PEAVAbstractMetaObjectBase@impl@class_loader@@U?$less@V?$basic_string@DU?$char_traits@D@std@@V?$allocator@D@2@@std@@@2@V?$allocator@U?$pair@$$CBV?$basic_string@DU?$char_traits@D@std@@V?$allocator@D@2@@std@@PEAVAbstractMetaObjectBase@impl@class_loader@@@std@@@2@$0A@@std@@@std@@QEAAPEAU?$_Tree_node@U?$pair@$$CBV?$basic_string@DU?$char_traits@D@std@@V?$allocator@D@2@@std@@PEAVAbstractMetaObjectBase@impl@class_loader@@@std@@PEAX@1@AEBUpiecewise_construct_t@1@$$QEAV?$tuple@AEBV?$basic_string@DU?$char_traits@D@std@@V?$allocator@D@2@@std@@@1@$$QEAV?$tuple@$$V@1@@Z
	??$_Copy_unchecked1@V?$TypedIterator@$$CBN@data@matlab@@PEAN@std@@YAPEANV?$TypedIterator@$$CBN@data@matlab@@0PEANU_General_ptr_iterator_tag@0@@Z
	??$_Copy_unchecked@PEAU?$KeyValue_@V?$allocator@X@std@@@diagnostic_msgs@@PEAU12@@std@@YAPEAU?$KeyValue_@V?$allocator@X@std@@@diagnostic_msgs@@PEAU12@00@Z
	??$_Copy_unchecked@V?$TypedIterator@$$CBN@data@matlab@@PEAN@std@@YAPEANV?$TypedIterator@$$CBN@data@matlab@@0PEAN@Z
	??$_Destroy_range@V?$allocator@U?$KeyValue_@V?$allocator@X@std@@@diagnostic_msgs@@@std@@@std@@YAXPEAU?$KeyValue_@V?$allocator@X@std@@@diagnostic_msgs@@0AEAV?$allocator@U?$KeyValue_@V?$allocator@X@std@@@diagnostic_msgs@@@0@@Z
	??$_Destroy_range@V?$allocator@U?$pair@W4FunctionType@detail@data@matlab@@V?$basic_string@DU?$char_traits@D@std@@V?$allocator@D@2@@std@@@std@@@std@@@std@@YAXPEAU?$pair@W4FunctionType@detail@data@matlab@@V?$basic_string@DU?$char_traits@D@std@@V?$allocator@D@2@@std@@@0@0AEAV?$allocator@U?$pair@W4FunctionType@detail@data@matlab@@V?$basic_string@DU?$char_traits@D@std@@V?$allocator@D@2@@std@@@std@@@0@@Z
	??$_Destroy_range@V?$allocator@V?$basic_string@DU?$char_traits@D@std@@V?$allocator@D@2@@std@@@std@@@std@@YAXPEAV?$basic_string@DU?$char_traits@D@std@@V?$allocator@D@2@@0@0AEAV?$allocator@V?$basic_string@DU?$char_traits@D@std@@V?$allocator@D@2@@std@@@0@@Z
	??$_Emplace_back@$$V@?$_Uninitialized_backout_al@PEAU?$KeyValue_@V?$allocator@X@std@@@diagnostic_msgs@@V?$allocator@U?$KeyValue_@V?$allocator@X@std@@@diagnostic_msgs@@@std@@@std@@QEAAXXZ
	??$_Emplace_back@AEBU?$pair@W4FunctionType@detail@data@matlab@@V?$basic_string@DU?$char_traits@D@std@@V?$allocator@D@2@@std@@@std@@@?$_Uninitialized_backout_al@PEAU?$pair@W4FunctionType@detail@data@matlab@@V?$basic_string@DU?$char_traits@D@std@@V?$allocator@D@2@@std@@@std@@V?$allocator@U?$pair@W4FunctionType@detail@data@matlab@@V?$basic_string@DU?$char_traits@D@std@@V?$allocator@D@2@@std@@@std@@@2@@std@@QEAAXAEBU?$pair@W4FunctionType@detail@data@matlab@@V?$basic_string@DU?$char_traits@D@std@@V?$allocator@D@2@@std@@@1@@Z
	??$_Emplace_back@U?$KeyValue_@V?$allocator@X@std@@@diagnostic_msgs@@@?$_Uninitialized_backout_al@PEAU?$KeyValue_@V?$allocator@X@std@@@diagnostic_msgs@@V?$allocator@U?$KeyValue_@V?$allocator@X@std@@@diagnostic_msgs@@@std@@@std@@QEAAX$$QEAU?$KeyValue_@V?$allocator@X@std@@@diagnostic_msgs@@@Z
	??$_Emplace_back_with_unused_capacity@AEBU?$KeyValue_@V?$allocator@X@std@@@diagnostic_msgs@@@?$vector@U?$KeyValue_@V?$allocator@X@std@@@diagnostic_msgs@@V?$allocator@U?$KeyValue_@V?$allocator@X@std@@@diagnostic_msgs@@@std@@@std@@AEAAXAEBU?$KeyValue_@V?$allocator@X@std@@@diagnostic_msgs@@@Z
	??$_Emplace_back_with_unused_capacity@V?$basic_string@DU?$char_traits@D@std@@V?$allocator@D@2@@std@@@?$vector@V?$basic_string@DU?$char_traits@D@std@@V?$allocator@D@2@@std@@V?$allocator@V?$basic_string@DU?$char_traits@D@std@@V?$allocator@D@2@@std@@@2@@std@@AEAAX$$QEAV?$basic_string@DU?$char_traits@D@std@@V?$allocator@D@2@@1@@Z
	??$_Emplace_reallocate@AEBU?$KeyValue_@V?$allocator@X@std@@@diagnostic_msgs@@@?$vector@U?$KeyValue_@V?$allocator@X@std@@@diagnostic_msgs@@V?$allocator@U?$KeyValue_@V?$allocator@X@std@@@diagnostic_msgs@@@std@@@std@@QEAAPEAU?$KeyValue_@V?$allocator@X@std@@@diagnostic_msgs@@QEAU23@AEBU23@@Z
	??$_Emplace_reallocate@V?$basic_string@DU?$char_traits@D@std@@V?$allocator@D@2@@std@@@?$vector@V?$basic_string@DU?$char_traits@D@std@@V?$allocator@D@2@@std@@V?$allocator@V?$basic_string@DU?$char_traits@D@std@@V?$allocator@D@2@@std@@@2@@std@@QEAAPEAV?$basic_string@DU?$char_traits@D@std@@V?$allocator@D@2@@1@QEAV21@$$QEAV21@@Z
	??$_Enable_shared_from_this1@VArrayFactoryImpl@impl@data@matlab@@V1234@@std@@YAXAEBV?$shared_ptr@VArrayFactoryImpl@impl@data@matlab@@@0@PEAVArrayFactoryImpl@impl@data@matlab@@U?$integral_constant@_N$0A@@0@@Z
	??$_Enable_shared_from_this1@VArrayImpl@impl@data@matlab@@V1234@@std@@YAXAEBV?$shared_ptr@VArrayImpl@impl@data@matlab@@@0@PEAVArrayImpl@impl@data@matlab@@U?$integral_constant@_N$0A@@0@@Z
	??$_Enable_shared_from_this1@VIteratorImpl@detail@data@matlab@@V1234@@std@@YAXAEBV?$shared_ptr@VIteratorImpl@detail@data@matlab@@@0@PEAVIteratorImpl@detail@data@matlab@@U?$integral_constant@_N$0A@@0@@Z
	??$_Enable_shared_from_this1@VNameListImpl@detail@data@matlab@@V1234@@std@@YAXAEBV?$shared_ptr@VNameListImpl@detail@data@matlab@@@0@PEAVNameListImpl@detail@data@matlab@@U?$integral_constant@_N$0A@@0@@Z
	??$_Enable_shared_from_this1@VPublisher@ros@@V12@@std@@YAXAEBV?$shared_ptr@VPublisher@ros@@@0@PEAVPublisher@ros@@U?$integral_constant@_N$0A@@0@@Z
	??$_Enable_shared_from_this1@VReferenceImpl@detail@data@matlab@@V1234@@std@@YAXAEBV?$shared_ptr@VReferenceImpl@detail@data@matlab@@@0@PEAVReferenceImpl@detail@data@matlab@@U?$integral_constant@_N$0A@@0@@Z
	??$_Enable_shared_from_this1@VSubscriber@ros@@V12@@std@@YAXAEBV?$shared_ptr@VSubscriber@ros@@@0@PEAVSubscriber@ros@@U?$integral_constant@_N$0A@@0@@Z
	??$_Enable_shared_from_this@VArrayFactoryImpl@impl@data@matlab@@V1234@@std@@YAXAEBV?$shared_ptr@VArrayFactoryImpl@impl@data@matlab@@@0@PEAVArrayFactoryImpl@impl@data@matlab@@@Z
	??$_Enable_shared_from_this@VArrayImpl@impl@data@matlab@@V1234@@std@@YAXAEBV?$shared_ptr@VArrayImpl@impl@data@matlab@@@0@PEAVArrayImpl@impl@data@matlab@@@Z
	??$_Enable_shared_from_this@VIteratorImpl@detail@data@matlab@@V1234@@std@@YAXAEBV?$shared_ptr@VIteratorImpl@detail@data@matlab@@@0@PEAVIteratorImpl@detail@data@matlab@@@Z
	??$_Enable_shared_from_this@VNameListImpl@detail@data@matlab@@V1234@@std@@YAXAEBV?$shared_ptr@VNameListImpl@detail@data@matlab@@@0@PEAVNameListImpl@detail@data@matlab@@@Z
	??$_Enable_shared_from_this@VPublisher@ros@@V12@@std@@YAXAEBV?$shared_ptr@VPublisher@ros@@@0@PEAVPublisher@ros@@@Z
	??$_Enable_shared_from_this@VReferenceImpl@detail@data@matlab@@V1234@@std@@YAXAEBV?$shared_ptr@VReferenceImpl@detail@data@matlab@@@0@PEAVReferenceImpl@detail@data@matlab@@@Z
	??$_Enable_shared_from_this@VSubscriber@ros@@V12@@std@@YAXAEBV?$shared_ptr@VSubscriber@ros@@@0@PEAVSubscriber@ros@@@Z
	??$_Freenode0@V?$allocator@U?$_Tree_node@U?$pair@$$CBV?$basic_string@DU?$char_traits@D@std@@V?$allocator@D@2@@std@@PEAVAbstractMetaObjectBase@impl@class_loader@@@std@@PEAX@std@@@std@@@?$_Tree_node@U?$pair@$$CBV?$basic_string@DU?$char_traits@D@std@@V?$allocator@D@2@@std@@PEAVAbstractMetaObjectBase@impl@class_loader@@@std@@PEAX@std@@SAXAEAV?$allocator@U?$_Tree_node@U?$pair@$$CBV?$basic_string@DU?$char_traits@D@std@@V?$allocator@D@2@@std@@PEAVAbstractMetaObjectBase@impl@class_loader@@@std@@PEAX@std@@@1@PEAU01@@Z
	??$_Getvals@_W@?$time_get@DV?$istreambuf_iterator@DU?$char_traits@D@std@@@std@@@std@@IEAAX_WAEBV_Locinfo@1@@Z
	??$_Getvals@_W@?$time_get@_WV?$istreambuf_iterator@_WU?$char_traits@_W@std@@@std@@@std@@IEAAX_WAEBV_Locinfo@1@@Z
	??$_Insert_at@AEAU?$pair@$$CBV?$basic_string@DU?$char_traits@D@std@@V?$allocator@D@2@@std@@PEAVAbstractMetaObjectBase@impl@class_loader@@@std@@PEAU?$_Tree_node@U?$pair@$$CBV?$basic_string@DU?$char_traits@D@std@@V?$allocator@D@2@@std@@PEAVAbstractMetaObjectBase@impl@class_loader@@@std@@PEAX@2@@?$_Tree@V?$_Tmap_traits@V?$basic_string@DU?$char_traits@D@std@@V?$allocator@D@2@@std@@PEAVAbstractMetaObjectBase@impl@class_loader@@U?$less@V?$basic_string@DU?$char_traits@D@std@@V?$allocator@D@2@@std@@@2@V?$allocator@U?$pair@$$CBV?$basic_string@DU?$char_traits@D@std@@V?$allocator@D@2@@std@@PEAVAbstractMetaObjectBase@impl@class_loader@@@std@@@2@$0A@@std@@@std@@IEAA?AV?$_Tree_iterator@V?$_Tree_val@U?$_Tree_simple_types@U?$pair@$$CBV?$basic_string@DU?$char_traits@D@std@@V?$allocator@D@2@@std@@PEAVAbstractMetaObjectBase@impl@class_loader@@@std@@@std@@@std@@@1@_NPEAU?$_Tree_node@U?$pair@$$CBV?$basic_string@DU?$char_traits@D@std@@V?$allocator@D@2@@std@@PEAVAbstractMetaObjectBase@impl@class_loader@@@std@@PEAX@1@AEAU?$pair@$$CBV?$basic_string@DU?$char_traits@D@std@@V?$allocator@D@2@@std@@PEAVAbstractMetaObjectBase@impl@class_loader@@@1@1@Z
	??$_Insert_hint@AEAU?$pair@$$CBV?$basic_string@DU?$char_traits@D@std@@V?$allocator@D@2@@std@@PEAVAbstractMetaObjectBase@impl@class_loader@@@std@@PEAU?$_Tree_node@U?$pair@$$CBV?$basic_string@DU?$char_traits@D@std@@V?$allocator@D@2@@std@@PEAVAbstractMetaObjectBase@impl@class_loader@@@std@@PEAX@2@@?$_Tree@V?$_Tmap_traits@V?$basic_string@DU?$char_traits@D@std@@V?$allocator@D@2@@std@@PEAVAbstractMetaObjectBase@impl@class_loader@@U?$less@V?$basic_string@DU?$char_traits@D@std@@V?$allocator@D@2@@std@@@2@V?$allocator@U?$pair@$$CBV?$basic_string@DU?$char_traits@D@std@@V?$allocator@D@2@@std@@PEAVAbstractMetaObjectBase@impl@class_loader@@@std@@@2@$0A@@std@@@std@@IEAA?AV?$_Tree_iterator@V?$_Tree_val@U?$_Tree_simple_types@U?$pair@$$CBV?$basic_string@DU?$char_traits@D@std@@V?$allocator@D@2@@std@@PEAVAbstractMetaObjectBase@impl@class_loader@@@std@@@std@@@std@@@1@V?$_Tree_const_iterator@V?$_Tree_val@U?$_Tree_simple_types@U?$pair@$$CBV?$basic_string@DU?$char_traits@D@std@@V?$allocator@D@2@@std@@PEAVAbstractMetaObjectBase@impl@class_loader@@@std@@@std@@@std@@@1@AEAU?$pair@$$CBV?$basic_string@DU?$char_traits@D@std@@V?$allocator@D@2@@std@@PEAVAbstractMetaObjectBase@impl@class_loader@@@1@PEAU?$_Tree_node@U?$pair@$$CBV?$basic_string@DU?$char_traits@D@std@@V?$allocator@D@2@@std@@PEAVAbstractMetaObjectBase@impl@class_loader@@@std@@PEAX@1@@Z
	??$_Insert_nohint@AEAU?$pair@$$CBV?$basic_string@DU?$char_traits@D@std@@V?$allocator@D@2@@std@@PEAVAbstractMetaObjectBase@impl@class_loader@@@std@@PEAU?$_Tree_node@U?$pair@$$CBV?$basic_string@DU?$char_traits@D@std@@V?$allocator@D@2@@std@@PEAVAbstractMetaObjectBase@impl@class_loader@@@std@@PEAX@2@@?$_Tree@V?$_Tmap_traits@V?$basic_string@DU?$char_traits@D@std@@V?$allocator@D@2@@std@@PEAVAbstractMetaObjectBase@impl@class_loader@@U?$less@V?$basic_string@DU?$char_traits@D@std@@V?$allocator@D@2@@std@@@2@V?$allocator@U?$pair@$$CBV?$basic_string@DU?$char_traits@D@std@@V?$allocator@D@2@@std@@PEAVAbstractMetaObjectBase@impl@class_loader@@@std@@@2@$0A@@std@@@std@@IEAA?AU?$pair@V?$_Tree_iterator@V?$_Tree_val@U?$_Tree_simple_types@U?$pair@$$CBV?$basic_string@DU?$char_traits@D@std@@V?$allocator@D@2@@std@@PEAVAbstractMetaObjectBase@impl@class_loader@@@std@@@std@@@std@@@std@@_N@1@_NAEAU?$pair@$$CBV?$basic_string@DU?$char_traits@D@std@@V?$allocator@D@2@@std@@PEAVAbstractMetaObjectBase@impl@class_loader@@@1@PEAU?$_Tree_node@U?$pair@$$CBV?$basic_string@DU?$char_traits@D@std@@V?$allocator@D@2@@std@@PEAVAbstractMetaObjectBase@impl@class_loader@@@std@@PEAX@1@@Z
	??$_Lbound@V?$basic_string@DU?$char_traits@D@std@@V?$allocator@D@2@@std@@@?$_Tree@V?$_Tmap_traits@V?$basic_string@DU?$char_traits@D@std@@V?$allocator@D@2@@std@@PEAVAbstractMetaObjectBase@impl@class_loader@@U?$less@V?$basic_string@DU?$char_traits@D@std@@V?$allocator@D@2@@std@@@2@V?$allocator@U?$pair@$$CBV?$basic_string@DU?$char_traits@D@std@@V?$allocator@D@2@@std@@PEAVAbstractMetaObjectBase@impl@class_loader@@@std@@@2@$0A@@std@@@std@@IEBAPEAU?$_Tree_node@U?$pair@$$CBV?$basic_string@DU?$char_traits@D@std@@V?$allocator@D@2@@std@@PEAVAbstractMetaObjectBase@impl@class_loader@@@std@@PEAX@1@AEBV?$basic_string@DU?$char_traits@D@std@@V?$allocator@D@2@@1@@Z
	??$_Maklocstr@D@std@@YAPEADPEBDPEADAEBU_Cvtvec@@@Z
	??$_Maklocstr@_W@std@@YAPEA_WPEBDPEA_WAEBU_Cvtvec@@@Z
	??$_Range_construct_or_tidy@PEBU?$pair@W4FunctionType@detail@data@matlab@@V?$basic_string@DU?$char_traits@D@std@@V?$allocator@D@2@@std@@@std@@@?$vector@U?$pair@W4FunctionType@detail@data@matlab@@V?$basic_string@DU?$char_traits@D@std@@V?$allocator@D@2@@std@@@std@@V?$allocator@U?$pair@W4FunctionType@detail@data@matlab@@V?$basic_string@DU?$char_traits@D@std@@V?$allocator@D@2@@std@@@std@@@2@@std@@AEAAXPEBU?$pair@W4FunctionType@detail@data@matlab@@V?$basic_string@DU?$char_traits@D@std@@V?$allocator@D@2@@std@@@1@0Uforward_iterator_tag@1@@Z
	??$_Range_construct_or_tidy@PEBV?$basic_string@DU?$char_traits@D@std@@V?$allocator@D@2@@std@@@?$vector@V?$basic_string@DU?$char_traits@D@std@@V?$allocator@D@2@@std@@V?$allocator@V?$basic_string@DU?$char_traits@D@std@@V?$allocator@D@2@@std@@@2@@std@@AEAAXPEBV?$basic_string@DU?$char_traits@D@std@@V?$allocator@D@2@@1@0Uforward_iterator_tag@1@@Z
	??$_Range_construct_or_tidy@PEBVArray@data@matlab@@@?$vector@VArray@data@matlab@@V?$allocator@VArray@data@matlab@@@std@@@std@@AEAAXPEBVArray@data@matlab@@0Uforward_iterator_tag@1@@Z
	??$_Range_construct_or_tidy@PEB_K@?$vector@_KV?$allocator@_K@std@@@std@@AEAAXPEB_K0Uforward_iterator_tag@1@@Z
	??$_Reallocate_for@V<lambda_138c3d7c38c85abb84c7fc7bfe5747b7>@@D@?$basic_string@DU?$char_traits@D@std@@V?$allocator@D@2@@std@@QEAAAEAV01@_KV<lambda_138c3d7c38c85abb84c7fc7bfe5747b7>@@D@Z
	??$_Reallocate_for@V<lambda_66f57f934f28d61049862f64df852ff0>@@PEBD@?$basic_string@DU?$char_traits@D@std@@V?$allocator@D@2@@std@@QEAAAEAV01@_KV<lambda_66f57f934f28d61049862f64df852ff0>@@PEBD@Z
	??$_Reallocate_grow_by@V<lambda_319d5e083f45f90dcdce5dce53cbb275>@@D@?$basic_string@DU?$char_traits@D@std@@V?$allocator@D@2@@std@@QEAAAEAV01@_KV<lambda_319d5e083f45f90dcdce5dce53cbb275>@@D@Z
	??$_Reallocate_grow_by@V<lambda_65e615be2a453ca0576c979606f46740>@@PEBD_K@?$basic_string@DU?$char_traits@D@std@@V?$allocator@D@2@@std@@QEAAAEAV01@_KV<lambda_65e615be2a453ca0576c979606f46740>@@PEBD_K@Z
	??$_Reallocate_grow_by@V<lambda_e1befb086ad3257e3f042a63030725f7>@@_KD@?$basic_string@DU?$char_traits@D@std@@V?$allocator@D@2@@std@@QEAAAEAV01@_KV<lambda_e1befb086ad3257e3f042a63030725f7>@@_KD@Z
	??$_Reallocate_grow_by@V<lambda_f3a66ab6a0570788f31503db83886f49>@@_KPEBD_K@?$basic_string@DU?$char_traits@D@std@@V?$allocator@D@2@@std@@QEAAAEAV01@_KV<lambda_f3a66ab6a0570788f31503db83886f49>@@_KPEBD2@Z
	??$_Resize@V<lambda_2a778761999fc28b0a098902444dd25e>@@@?$vector@NV?$allocator@N@std@@@std@@AEAAX_KV<lambda_2a778761999fc28b0a098902444dd25e>@@@Z
	??$_Resize@V<lambda_45ffac4d6f0d1017a7543597eadb7069>@@@?$vector@U?$KeyValue_@V?$allocator@X@std@@@diagnostic_msgs@@V?$allocator@U?$KeyValue_@V?$allocator@X@std@@@diagnostic_msgs@@@std@@@std@@AEAAX_KV<lambda_45ffac4d6f0d1017a7543597eadb7069>@@@Z
	??$_Resize@V<lambda_4bad70e8c3e06c245281339bf8eae5be>@@@?$vector@V?$basic_string@DU?$char_traits@D@std@@V?$allocator@D@2@@std@@V?$allocator@V?$basic_string@DU?$char_traits@D@std@@V?$allocator@D@2@@std@@@2@@std@@AEAAX_KV<lambda_4bad70e8c3e06c245281339bf8eae5be>@@@Z
	??$_Setpd@PEAVArrayFactoryImpl@impl@data@matlab@@V<lambda_a4c5f97d4391fb4c09103a727c16defd>@@@?$shared_ptr@VArrayFactoryImpl@impl@data@matlab@@@std@@AEAAXPEAVArrayFactoryImpl@impl@data@matlab@@V<lambda_a4c5f97d4391fb4c09103a727c16defd>@@@Z
	??$_Setpd@PEAVArrayImpl@impl@data@matlab@@V<lambda_18bde30140702ba20a566c9dc393b8c0>@@@?$shared_ptr@VArrayImpl@impl@data@matlab@@@std@@AEAAXPEAVArrayImpl@impl@data@matlab@@V<lambda_18bde30140702ba20a566c9dc393b8c0>@@@Z
	??$_Setpd@PEAVArrayImpl@impl@data@matlab@@V<lambda_49bc69670bef5877f460780ec06c4b58>@@@?$shared_ptr@VArrayImpl@impl@data@matlab@@@std@@AEAAXPEAVArrayImpl@impl@data@matlab@@V<lambda_49bc69670bef5877f460780ec06c4b58>@@@Z
	??$_Setpd@PEAVArrayImpl@impl@data@matlab@@V<lambda_8717c4bee2934487c85bc1f9f4a10ac1>@@@?$shared_ptr@VArrayImpl@impl@data@matlab@@@std@@AEAAXPEAVArrayImpl@impl@data@matlab@@V<lambda_8717c4bee2934487c85bc1f9f4a10ac1>@@@Z
	??$_Setpd@PEAVIteratorImpl@detail@data@matlab@@V<lambda_1cc0c119369d3677f6f4efcaefc6d3c2>@@@?$shared_ptr@VIteratorImpl@detail@data@matlab@@@std@@AEAAXPEAVIteratorImpl@detail@data@matlab@@V<lambda_1cc0c119369d3677f6f4efcaefc6d3c2>@@@Z
	??$_Setpd@PEAVIteratorImpl@detail@data@matlab@@V<lambda_5f4fcb290926e6b66c490376dc93f8ff>@@@?$shared_ptr@VIteratorImpl@detail@data@matlab@@@std@@AEAAXPEAVIteratorImpl@detail@data@matlab@@V<lambda_5f4fcb290926e6b66c490376dc93f8ff>@@@Z
	??$_Setpd@PEAVIteratorImpl@detail@data@matlab@@V<lambda_f604b6d186b888d49827c9591affdc3a>@@@?$shared_ptr@VIteratorImpl@detail@data@matlab@@@std@@AEAAXPEAVIteratorImpl@detail@data@matlab@@V<lambda_f604b6d186b888d49827c9591affdc3a>@@@Z
	??$_Setpd@PEAVNameListImpl@detail@data@matlab@@V<lambda_9f3a4d0362104a3bede0405fafec76e1>@@@?$shared_ptr@VNameListImpl@detail@data@matlab@@@std@@AEAAXPEAVNameListImpl@detail@data@matlab@@V<lambda_9f3a4d0362104a3bede0405fafec76e1>@@@Z
	??$_Setpd@PEAVReferenceImpl@detail@data@matlab@@V<lambda_2615407b98e1f3a14023b76f0dedc381>@@@?$shared_ptr@VReferenceImpl@detail@data@matlab@@@std@@AEAAXPEAVReferenceImpl@detail@data@matlab@@V<lambda_2615407b98e1f3a14023b76f0dedc381>@@@Z
	??$_Try_emplace@AEBV?$basic_string@DU?$char_traits@D@std@@V?$allocator@D@2@@std@@$$V@?$map@V?$basic_string@DU?$char_traits@D@std@@V?$allocator@D@2@@std@@PEAVAbstractMetaObjectBase@impl@class_loader@@U?$less@V?$basic_string@DU?$char_traits@D@std@@V?$allocator@D@2@@std@@@2@V?$allocator@U?$pair@$$CBV?$basic_string@DU?$char_traits@D@std@@V?$allocator@D@2@@std@@PEAVAbstractMetaObjectBase@impl@class_loader@@@std@@@2@@std@@QEAA?AU?$pair@V?$_Tree_iterator@V?$_Tree_val@U?$_Tree_simple_types@U?$pair@$$CBV?$basic_string@DU?$char_traits@D@std@@V?$allocator@D@2@@std@@PEAVAbstractMetaObjectBase@impl@class_loader@@@std@@@std@@@std@@@std@@_N@1@AEBV?$basic_string@DU?$char_traits@D@std@@V?$allocator@D@2@@1@@Z
	??$_Uninitialized_copy@PEANPEANV?$allocator@N@std@@@std@@YAPEANQEAN0PEANAEAV?$allocator@N@0@@Z
	??$_Uninitialized_copy@PEAU?$KeyValue_@V?$allocator@X@std@@@diagnostic_msgs@@PEAU12@V?$allocator@U?$KeyValue_@V?$allocator@X@std@@@diagnostic_msgs@@@std@@@std@@YAPEAU?$KeyValue_@V?$allocator@X@std@@@diagnostic_msgs@@QEAU12@0PEAU12@AEAV?$allocator@U?$KeyValue_@V?$allocator@X@std@@@diagnostic_msgs@@@0@@Z
	??$_Uninitialized_copy@PEAV?$basic_string@DU?$char_traits@D@std@@V?$allocator@D@2@@std@@PEAV12@V?$allocator@V?$basic_string@DU?$char_traits@D@std@@V?$allocator@D@2@@std@@@2@@std@@YAPEAV?$basic_string@DU?$char_traits@D@std@@V?$allocator@D@2@@0@QEAV10@0PEAV10@AEAV?$allocator@V?$basic_string@DU?$char_traits@D@std@@V?$allocator@D@2@@std@@@0@@Z
	??$_Uninitialized_copy@PEBU?$pair@W4FunctionType@detail@data@matlab@@V?$basic_string@DU?$char_traits@D@std@@V?$allocator@D@2@@std@@@std@@PEAU12@V?$allocator@U?$pair@W4FunctionType@detail@data@matlab@@V?$basic_string@DU?$char_traits@D@std@@V?$allocator@D@2@@std@@@std@@@2@@std@@YAPEAU?$pair@W4FunctionType@detail@data@matlab@@V?$basic_string@DU?$char_traits@D@std@@V?$allocator@D@2@@std@@@0@QEBU10@0PEAU10@AEAV?$allocator@U?$pair@W4FunctionType@detail@data@matlab@@V?$basic_string@DU?$char_traits@D@std@@V?$allocator@D@2@@std@@@std@@@0@@Z
	??$_Uninitialized_copy@PEBV?$basic_string@DU?$char_traits@D@std@@V?$allocator@D@2@@std@@PEAV12@V?$allocator@V?$basic_string@DU?$char_traits@D@std@@V?$allocator@D@2@@std@@@2@@std@@YAPEAV?$basic_string@DU?$char_traits@D@std@@V?$allocator@D@2@@0@QEBV10@0PEAV10@AEAV?$allocator@V?$basic_string@DU?$char_traits@D@std@@V?$allocator@D@2@@std@@@0@@Z
	??$_Uninitialized_copy@PEBVArray@data@matlab@@PEAV123@V?$allocator@VArray@data@matlab@@@std@@@std@@YAPEAVArray@data@matlab@@QEBV123@0PEAV123@AEAV?$allocator@VArray@data@matlab@@@0@@Z
	??$_Uninitialized_copy@PEB_KPEA_KV?$allocator@_K@std@@@std@@YAPEA_KQEB_K0PEA_KAEAV?$allocator@_K@0@@Z
	??$_Uninitialized_copy_al_unchecked@PEAU?$KeyValue_@V?$allocator@X@std@@@diagnostic_msgs@@PEAU12@V?$allocator@U?$KeyValue_@V?$allocator@X@std@@@diagnostic_msgs@@@std@@@std@@YAPEAU?$KeyValue_@V?$allocator@X@std@@@diagnostic_msgs@@PEAU12@QEAU12@1AEAV?$allocator@U?$KeyValue_@V?$allocator@X@std@@@diagnostic_msgs@@@0@U_General_ptr_iterator_tag@0@U_Unused_parameter@0@@Z
	??$_Uninitialized_copy_al_unchecked@PEAV?$basic_string@DU?$char_traits@D@std@@V?$allocator@D@2@@std@@PEAV12@V?$allocator@V?$basic_string@DU?$char_traits@D@std@@V?$allocator@D@2@@std@@@2@@std@@YAPEAV?$basic_string@DU?$char_traits@D@std@@V?$allocator@D@2@@0@PEAV10@QEAV10@1AEAV?$allocator@V?$basic_string@DU?$char_traits@D@std@@V?$allocator@D@2@@std@@@0@U_General_ptr_iterator_tag@0@U_Unused_parameter@0@@Z
	??$_Uninitialized_copy_al_unchecked@PEBU?$pair@W4FunctionType@detail@data@matlab@@V?$basic_string@DU?$char_traits@D@std@@V?$allocator@D@2@@std@@@std@@PEAU12@V?$allocator@U?$pair@W4FunctionType@detail@data@matlab@@V?$basic_string@DU?$char_traits@D@std@@V?$allocator@D@2@@std@@@std@@@2@@std@@YAPEAU?$pair@W4FunctionType@detail@data@matlab@@V?$basic_string@DU?$char_traits@D@std@@V?$allocator@D@2@@std@@@0@PEBU10@QEBU10@QEAU10@AEAV?$allocator@U?$pair@W4FunctionType@detail@data@matlab@@V?$basic_string@DU?$char_traits@D@std@@V?$allocator@D@2@@std@@@std@@@0@U_General_ptr_iterator_tag@0@U_Unused_parameter@0@@Z
	??$_Uninitialized_copy_al_unchecked@PEBV?$basic_string@DU?$char_traits@D@std@@V?$allocator@D@2@@std@@PEAV12@V?$allocator@V?$basic_string@DU?$char_traits@D@std@@V?$allocator@D@2@@std@@@2@@std@@YAPEAV?$basic_string@DU?$char_traits@D@std@@V?$allocator@D@2@@0@PEBV10@QEBV10@QEAV10@AEAV?$allocator@V?$basic_string@DU?$char_traits@D@std@@V?$allocator@D@2@@std@@@0@U_General_ptr_iterator_tag@0@U_Unused_parameter@0@@Z
	??$_Uninitialized_copy_al_unchecked@PEBVArray@data@matlab@@PEAV123@V?$allocator@VArray@data@matlab@@@std@@@std@@YAPEAVArray@data@matlab@@PEBV123@QEBV123@QEAV123@AEAV?$allocator@VArray@data@matlab@@@0@U_General_ptr_iterator_tag@0@U_Unused_parameter@0@@Z
	??$_Uninitialized_move@PEANPEANV?$allocator@N@std@@@std@@YAPEANQEAN0PEANAEAV?$allocator@N@0@@Z
	??$_Uninitialized_move@PEAU?$KeyValue_@V?$allocator@X@std@@@diagnostic_msgs@@PEAU12@V?$allocator@U?$KeyValue_@V?$allocator@X@std@@@diagnostic_msgs@@@std@@@std@@YAPEAU?$KeyValue_@V?$allocator@X@std@@@diagnostic_msgs@@QEAU12@0PEAU12@AEAV?$allocator@U?$KeyValue_@V?$allocator@X@std@@@diagnostic_msgs@@@0@@Z
	??$_Uninitialized_move@PEAV?$basic_string@DU?$char_traits@D@std@@V?$allocator@D@2@@std@@PEAV12@V?$allocator@V?$basic_string@DU?$char_traits@D@std@@V?$allocator@D@2@@std@@@2@@std@@YAPEAV?$basic_string@DU?$char_traits@D@std@@V?$allocator@D@2@@0@QEAV10@0PEAV10@AEAV?$allocator@V?$basic_string@DU?$char_traits@D@std@@V?$allocator@D@2@@std@@@0@@Z
	??$_Uninitialized_move_al_unchecked@PEAU?$KeyValue_@V?$allocator@X@std@@@diagnostic_msgs@@PEAU12@V?$allocator@U?$KeyValue_@V?$allocator@X@std@@@diagnostic_msgs@@@std@@@std@@YAPEAU?$KeyValue_@V?$allocator@X@std@@@diagnostic_msgs@@PEAU12@QEAU12@1AEAV?$allocator@U?$KeyValue_@V?$allocator@X@std@@@diagnostic_msgs@@@0@U_General_ptr_iterator_tag@0@U_Unused_parameter@0@@Z
	??$_Uninitialized_move_al_unchecked@PEAV?$basic_string@DU?$char_traits@D@std@@V?$allocator@D@2@@std@@PEAV12@V?$allocator@V?$basic_string@DU?$char_traits@D@std@@V?$allocator@D@2@@std@@@2@@std@@YAPEAV?$basic_string@DU?$char_traits@D@std@@V?$allocator@D@2@@0@PEAV10@QEAV10@1AEAV?$allocator@V?$basic_string@DU?$char_traits@D@std@@V?$allocator@D@2@@std@@@0@U_General_ptr_iterator_tag@0@U_Unused_parameter@0@@Z
	??$_Uninitialized_value_construct_n1@PEAU?$KeyValue_@V?$allocator@X@std@@@diagnostic_msgs@@_KV?$allocator@U?$KeyValue_@V?$allocator@X@std@@@diagnostic_msgs@@@std@@@std@@YAPEAU?$KeyValue_@V?$allocator@X@std@@@diagnostic_msgs@@QEAU12@_KAEAV?$allocator@U?$KeyValue_@V?$allocator@X@std@@@diagnostic_msgs@@@0@U?$integral_constant@_N$0A@@0@@Z
	??$_Uninitialized_value_construct_n1@PEAV?$basic_string@DU?$char_traits@D@std@@V?$allocator@D@2@@std@@_KV?$allocator@V?$basic_string@DU?$char_traits@D@std@@V?$allocator@D@2@@std@@@2@@std@@YAPEAV?$basic_string@DU?$char_traits@D@std@@V?$allocator@D@2@@0@QEAV10@_KAEAV?$allocator@V?$basic_string@DU?$char_traits@D@std@@V?$allocator@D@2@@std@@@0@U?$integral_constant@_N$0A@@0@@Z
	??$advertise@U?$Object_@V?$allocator@X@std@@@sam_custom_messages@@@NodeHandle@ros@@QEAA?AVPublisher@1@AEBV?$basic_string@DU?$char_traits@D@std@@V?$allocator@D@2@@std@@I_N@Z
	??$advertise@U?$capability_@V?$allocator@X@std@@@sam_custom_messages@@@NodeHandle@ros@@QEAA?AVPublisher@1@AEBV?$basic_string@DU?$char_traits@D@std@@V?$allocator@D@2@@std@@I_N@Z
	??$advertise@U?$current_action_@V?$allocator@X@std@@@sam_custom_messages@@@NodeHandle@ros@@QEAA?AVPublisher@1@AEBV?$basic_string@DU?$char_traits@D@std@@V?$allocator@D@2@@std@@I_N@Z
	??$advertise@U?$diagnostics_@V?$allocator@X@std@@@sam_custom_messages@@@NodeHandle@ros@@QEAA?AVPublisher@1@AEBV?$basic_string@DU?$char_traits@D@std@@V?$allocator@D@2@@std@@I_N@Z
	??$advertise@U?$hand_pos_@V?$allocator@X@std@@@sam_custom_messages@@@NodeHandle@ros@@QEAA?AVPublisher@1@AEBV?$basic_string@DU?$char_traits@D@std@@V?$allocator@D@2@@std@@I_N@Z
	??$advertise@U?$object_state_@V?$allocator@X@std@@@sam_custom_messages@@@NodeHandle@ros@@QEAA?AVPublisher@1@AEBV?$basic_string@DU?$char_traits@D@std@@V?$allocator@D@2@@std@@I_N@Z
	??$advertise@U?$robot_state_@V?$allocator@X@std@@@sam_custom_messages@@@NodeHandle@ros@@QEAA?AVPublisher@1@AEBV?$basic_string@DU?$char_traits@D@std@@V?$allocator@D@2@@std@@I_N@Z
	??$advertise@U?$user_prediction_@V?$allocator@X@std@@@sam_custom_messages@@@NodeHandle@ros@@QEAA?AVPublisher@1@AEBV?$basic_string@DU?$char_traits@D@std@@V?$allocator@D@2@@std@@I_N@Z
	??$allInOne@UIStream@serialization@ros@@AEAU?$DiagnosticStatus_@V?$allocator@X@std@@@diagnostic_msgs@@@?$Serializer@U?$DiagnosticStatus_@V?$allocator@X@std@@@diagnostic_msgs@@@serialization@ros@@SAXAEAUIStream@12@AEAU?$DiagnosticStatus_@V?$allocator@X@std@@@diagnostic_msgs@@@Z
	??$allInOne@UIStream@serialization@ros@@AEAU?$Header_@V?$allocator@X@std@@@std_msgs@@@?$Serializer@U?$Header_@V?$allocator@X@std@@@std_msgs@@@serialization@ros@@SAXAEAUIStream@12@AEAU?$Header_@V?$allocator@X@std@@@std_msgs@@@Z
	??$allInOne@UIStream@serialization@ros@@AEAU?$JointState_@V?$allocator@X@std@@@sensor_msgs@@@?$Serializer@U?$JointState_@V?$allocator@X@std@@@sensor_msgs@@@serialization@ros@@SAXAEAUIStream@12@AEAU?$JointState_@V?$allocator@X@std@@@sensor_msgs@@@Z
	??$allInOne@UIStream@serialization@ros@@AEAU?$Object_@V?$allocator@X@std@@@sam_custom_messages@@@?$Serializer@U?$Object_@V?$allocator@X@std@@@sam_custom_messages@@@serialization@ros@@SAXAEAUIStream@12@AEAU?$Object_@V?$allocator@X@std@@@sam_custom_messages@@@Z
	??$allInOne@UIStream@serialization@ros@@AEAU?$Pose_@V?$allocator@X@std@@@geometry_msgs@@@?$Serializer@U?$Pose_@V?$allocator@X@std@@@geometry_msgs@@@serialization@ros@@SAXAEAUIStream@12@AEAU?$Pose_@V?$allocator@X@std@@@geometry_msgs@@@Z
	??$allInOne@UIStream@serialization@ros@@AEAU?$Quaternion_@V?$allocator@X@std@@@geometry_msgs@@@?$Serializer@U?$Quaternion_@V?$allocator@X@std@@@geometry_msgs@@@serialization@ros@@SAXAEAUIStream@12@AEAU?$Quaternion_@V?$allocator@X@std@@@geometry_msgs@@@Z
	??$allInOne@UIStream@serialization@ros@@AEAU?$capability_@V?$allocator@X@std@@@sam_custom_messages@@@?$Serializer@U?$capability_@V?$allocator@X@std@@@sam_custom_messages@@@serialization@ros@@SAXAEAUIStream@12@AEAU?$capability_@V?$allocator@X@std@@@sam_custom_messages@@@Z
	??$allInOne@UIStream@serialization@ros@@AEAU?$current_action_@V?$allocator@X@std@@@sam_custom_messages@@@?$Serializer@U?$current_action_@V?$allocator@X@std@@@sam_custom_messages@@@serialization@ros@@SAXAEAUIStream@12@AEAU?$current_action_@V?$allocator@X@std@@@sam_custom_messages@@@Z
	??$allInOne@UIStream@serialization@ros@@AEAU?$diagnostics_@V?$allocator@X@std@@@sam_custom_messages@@@?$Serializer@U?$diagnostics_@V?$allocator@X@std@@@sam_custom_messages@@@serialization@ros@@SAXAEAUIStream@12@AEAU?$diagnostics_@V?$allocator@X@std@@@sam_custom_messages@@@Z
	??$allInOne@UIStream@serialization@ros@@AEAU?$hand_pos_@V?$allocator@X@std@@@sam_custom_messages@@@?$Serializer@U?$hand_pos_@V?$allocator@X@std@@@sam_custom_messages@@@serialization@ros@@SAXAEAUIStream@12@AEAU?$hand_pos_@V?$allocator@X@std@@@sam_custom_messages@@@Z
	??$allInOne@UIStream@serialization@ros@@AEAU?$object_state_@V?$allocator@X@std@@@sam_custom_messages@@@?$Serializer@U?$object_state_@V?$allocator@X@std@@@sam_custom_messages@@@serialization@ros@@SAXAEAUIStream@12@AEAU?$object_state_@V?$allocator@X@std@@@sam_custom_messages@@@Z
	??$allInOne@UIStream@serialization@ros@@AEAU?$robot_state_@V?$allocator@X@std@@@sam_custom_messages@@@?$Serializer@U?$robot_state_@V?$allocator@X@std@@@sam_custom_messages@@@serialization@ros@@SAXAEAUIStream@12@AEAU?$robot_state_@V?$allocator@X@std@@@sam_custom_messages@@@Z
	??$allInOne@UIStream@serialization@ros@@AEAU?$user_prediction_@V?$allocator@X@std@@@sam_custom_messages@@@?$Serializer@U?$user_prediction_@V?$allocator@X@std@@@sam_custom_messages@@@serialization@ros@@SAXAEAUIStream@12@AEAU?$user_prediction_@V?$allocator@X@std@@@sam_custom_messages@@@Z
	??$allInOne@ULStream@serialization@ros@@AEBU?$DiagnosticStatus_@V?$allocator@X@std@@@diagnostic_msgs@@@?$Serializer@U?$DiagnosticStatus_@V?$allocator@X@std@@@diagnostic_msgs@@@serialization@ros@@SAXAEAULStream@12@AEBU?$DiagnosticStatus_@V?$allocator@X@std@@@diagnostic_msgs@@@Z
	??$allInOne@ULStream@serialization@ros@@AEBU?$Header_@V?$allocator@X@std@@@std_msgs@@@?$Serializer@U?$Header_@V?$allocator@X@std@@@std_msgs@@@serialization@ros@@SAXAEAULStream@12@AEBU?$Header_@V?$allocator@X@std@@@std_msgs@@@Z
	??$allInOne@ULStream@serialization@ros@@AEBU?$JointState_@V?$allocator@X@std@@@sensor_msgs@@@?$Serializer@U?$JointState_@V?$allocator@X@std@@@sensor_msgs@@@serialization@ros@@SAXAEAULStream@12@AEBU?$JointState_@V?$allocator@X@std@@@sensor_msgs@@@Z
	??$allInOne@ULStream@serialization@ros@@AEBU?$KeyValue_@V?$allocator@X@std@@@diagnostic_msgs@@@?$Serializer@U?$KeyValue_@V?$allocator@X@std@@@diagnostic_msgs@@@serialization@ros@@SAXAEAULStream@12@AEBU?$KeyValue_@V?$allocator@X@std@@@diagnostic_msgs@@@Z
	??$allInOne@ULStream@serialization@ros@@AEBU?$Object_@V?$allocator@X@std@@@sam_custom_messages@@@?$Serializer@U?$Object_@V?$allocator@X@std@@@sam_custom_messages@@@serialization@ros@@SAXAEAULStream@12@AEBU?$Object_@V?$allocator@X@std@@@sam_custom_messages@@@Z
	??$allInOne@ULStream@serialization@ros@@AEBU?$Pose_@V?$allocator@X@std@@@geometry_msgs@@@?$Serializer@U?$Pose_@V?$allocator@X@std@@@geometry_msgs@@@serialization@ros@@SAXAEAULStream@12@AEBU?$Pose_@V?$allocator@X@std@@@geometry_msgs@@@Z
	??$allInOne@ULStream@serialization@ros@@AEBU?$Quaternion_@V?$allocator@X@std@@@geometry_msgs@@@?$Serializer@U?$Quaternion_@V?$allocator@X@std@@@geometry_msgs@@@serialization@ros@@SAXAEAULStream@12@AEBU?$Quaternion_@V?$allocator@X@std@@@geometry_msgs@@@Z
	??$allInOne@ULStream@serialization@ros@@AEBU?$capability_@V?$allocator@X@std@@@sam_custom_messages@@@?$Serializer@U?$capability_@V?$allocator@X@std@@@sam_custom_messages@@@serialization@ros@@SAXAEAULStream@12@AEBU?$capability_@V?$allocator@X@std@@@sam_custom_messages@@@Z
	??$allInOne@ULStream@serialization@ros@@AEBU?$current_action_@V?$allocator@X@std@@@sam_custom_messages@@@?$Serializer@U?$current_action_@V?$allocator@X@std@@@sam_custom_messages@@@serialization@ros@@SAXAEAULStream@12@AEBU?$current_action_@V?$allocator@X@std@@@sam_custom_messages@@@Z
	??$allInOne@ULStream@serialization@ros@@AEBU?$diagnostics_@V?$allocator@X@std@@@sam_custom_messages@@@?$Serializer@U?$diagnostics_@V?$allocator@X@std@@@sam_custom_messages@@@serialization@ros@@SAXAEAULStream@12@AEBU?$diagnostics_@V?$allocator@X@std@@@sam_custom_messages@@@Z
	??$allInOne@ULStream@serialization@ros@@AEBU?$hand_pos_@V?$allocator@X@std@@@sam_custom_messages@@@?$Serializer@U?$hand_pos_@V?$allocator@X@std@@@sam_custom_messages@@@serialization@ros@@SAXAEAULStream@12@AEBU?$hand_pos_@V?$allocator@X@std@@@sam_custom_messages@@@Z
	??$allInOne@ULStream@serialization@ros@@AEBU?$object_state_@V?$allocator@X@std@@@sam_custom_messages@@@?$Serializer@U?$object_state_@V?$allocator@X@std@@@sam_custom_messages@@@serialization@ros@@SAXAEAULStream@12@AEBU?$object_state_@V?$allocator@X@std@@@sam_custom_messages@@@Z
	??$allInOne@ULStream@serialization@ros@@AEBU?$robot_state_@V?$allocator@X@std@@@sam_custom_messages@@@?$Serializer@U?$robot_state_@V?$allocator@X@std@@@sam_custom_messages@@@serialization@ros@@SAXAEAULStream@12@AEBU?$robot_state_@V?$allocator@X@std@@@sam_custom_messages@@@Z
	??$allInOne@ULStream@serialization@ros@@AEBU?$user_prediction_@V?$allocator@X@std@@@sam_custom_messages@@@?$Serializer@U?$user_prediction_@V?$allocator@X@std@@@sam_custom_messages@@@serialization@ros@@SAXAEAULStream@12@AEBU?$user_prediction_@V?$allocator@X@std@@@sam_custom_messages@@@Z
	??$allInOne@UOStream@serialization@ros@@AEBU?$DiagnosticStatus_@V?$allocator@X@std@@@diagnostic_msgs@@@?$Serializer@U?$DiagnosticStatus_@V?$allocator@X@std@@@diagnostic_msgs@@@serialization@ros@@SAXAEAUOStream@12@AEBU?$DiagnosticStatus_@V?$allocator@X@std@@@diagnostic_msgs@@@Z
	??$allInOne@UOStream@serialization@ros@@AEBU?$Header_@V?$allocator@X@std@@@std_msgs@@@?$Serializer@U?$Header_@V?$allocator@X@std@@@std_msgs@@@serialization@ros@@SAXAEAUOStream@12@AEBU?$Header_@V?$allocator@X@std@@@std_msgs@@@Z
	??$allInOne@UOStream@serialization@ros@@AEBU?$JointState_@V?$allocator@X@std@@@sensor_msgs@@@?$Serializer@U?$JointState_@V?$allocator@X@std@@@sensor_msgs@@@serialization@ros@@SAXAEAUOStream@12@AEBU?$JointState_@V?$allocator@X@std@@@sensor_msgs@@@Z
	??$allInOne@UOStream@serialization@ros@@AEBU?$Object_@V?$allocator@X@std@@@sam_custom_messages@@@?$Serializer@U?$Object_@V?$allocator@X@std@@@sam_custom_messages@@@serialization@ros@@SAXAEAUOStream@12@AEBU?$Object_@V?$allocator@X@std@@@sam_custom_messages@@@Z
	??$allInOne@UOStream@serialization@ros@@AEBU?$Pose_@V?$allocator@X@std@@@geometry_msgs@@@?$Serializer@U?$Pose_@V?$allocator@X@std@@@geometry_msgs@@@serialization@ros@@SAXAEAUOStream@12@AEBU?$Pose_@V?$allocator@X@std@@@geometry_msgs@@@Z
	??$allInOne@UOStream@serialization@ros@@AEBU?$Quaternion_@V?$allocator@X@std@@@geometry_msgs@@@?$Serializer@U?$Quaternion_@V?$allocator@X@std@@@geometry_msgs@@@serialization@ros@@SAXAEAUOStream@12@AEBU?$Quaternion_@V?$allocator@X@std@@@geometry_msgs@@@Z
	??$allInOne@UOStream@serialization@ros@@AEBU?$capability_@V?$allocator@X@std@@@sam_custom_messages@@@?$Serializer@U?$capability_@V?$allocator@X@std@@@sam_custom_messages@@@serialization@ros@@SAXAEAUOStream@12@AEBU?$capability_@V?$allocator@X@std@@@sam_custom_messages@@@Z
	??$allInOne@UOStream@serialization@ros@@AEBU?$current_action_@V?$allocator@X@std@@@sam_custom_messages@@@?$Serializer@U?$current_action_@V?$allocator@X@std@@@sam_custom_messages@@@serialization@ros@@SAXAEAUOStream@12@AEBU?$current_action_@V?$allocator@X@std@@@sam_custom_messages@@@Z
	??$allInOne@UOStream@serialization@ros@@AEBU?$diagnostics_@V?$allocator@X@std@@@sam_custom_messages@@@?$Serializer@U?$diagnostics_@V?$allocator@X@std@@@sam_custom_messages@@@serialization@ros@@SAXAEAUOStream@12@AEBU?$diagnostics_@V?$allocator@X@std@@@sam_custom_messages@@@Z
	??$allInOne@UOStream@serialization@ros@@AEBU?$hand_pos_@V?$allocator@X@std@@@sam_custom_messages@@@?$Serializer@U?$hand_pos_@V?$allocator@X@std@@@sam_custom_messages@@@serialization@ros@@SAXAEAUOStream@12@AEBU?$hand_pos_@V?$allocator@X@std@@@sam_custom_messages@@@Z
	??$allInOne@UOStream@serialization@ros@@AEBU?$object_state_@V?$allocator@X@std@@@sam_custom_messages@@@?$Serializer@U?$object_state_@V?$allocator@X@std@@@sam_custom_messages@@@serialization@ros@@SAXAEAUOStream@12@AEBU?$object_state_@V?$allocator@X@std@@@sam_custom_messages@@@Z
	??$allInOne@UOStream@serialization@ros@@AEBU?$robot_state_@V?$allocator@X@std@@@sam_custom_messages@@@?$Serializer@U?$robot_state_@V?$allocator@X@std@@@sam_custom_messages@@@serialization@ros@@SAXAEAUOStream@12@AEBU?$robot_state_@V?$allocator@X@std@@@sam_custom_messages@@@Z
	??$allInOne@UOStream@serialization@ros@@AEBU?$user_prediction_@V?$allocator@X@std@@@sam_custom_messages@@@?$Serializer@U?$user_prediction_@V?$allocator@X@std@@@sam_custom_messages@@@serialization@ros@@SAXAEAUOStream@12@AEBU?$user_prediction_@V?$allocator@X@std@@@sam_custom_messages@@@Z
	??$assign_to@U?$DefaultMessageCreator@U?$Object_@V?$allocator@X@std@@@sam_custom_messages@@@ros@@@?$function0@V?$shared_ptr@U?$Object_@V?$allocator@X@std@@@sam_custom_messages@@@mwboost@@@mwboost@@AEAAXU?$DefaultMessageCreator@U?$Object_@V?$allocator@X@std@@@sam_custom_messages@@@ros@@@Z
	??$assign_to@U?$DefaultMessageCreator@U?$capability_@V?$allocator@X@std@@@sam_custom_messages@@@ros@@@?$function0@V?$shared_ptr@U?$capability_@V?$allocator@X@std@@@sam_custom_messages@@@mwboost@@@mwboost@@AEAAXU?$DefaultMessageCreator@U?$capability_@V?$allocator@X@std@@@sam_custom_messages@@@ros@@@Z
	??$assign_to@U?$DefaultMessageCreator@U?$current_action_@V?$allocator@X@std@@@sam_custom_messages@@@ros@@@?$function0@V?$shared_ptr@U?$current_action_@V?$allocator@X@std@@@sam_custom_messages@@@mwboost@@@mwboost@@AEAAXU?$DefaultMessageCreator@U?$current_action_@V?$allocator@X@std@@@sam_custom_messages@@@ros@@@Z
	??$assign_to@U?$DefaultMessageCreator@U?$diagnostics_@V?$allocator@X@std@@@sam_custom_messages@@@ros@@@?$function0@V?$shared_ptr@U?$diagnostics_@V?$allocator@X@std@@@sam_custom_messages@@@mwboost@@@mwboost@@AEAAXU?$DefaultMessageCreator@U?$diagnostics_@V?$allocator@X@std@@@sam_custom_messages@@@ros@@@Z
	??$assign_to@U?$DefaultMessageCreator@U?$hand_pos_@V?$allocator@X@std@@@sam_custom_messages@@@ros@@@?$function0@V?$shared_ptr@U?$hand_pos_@V?$allocator@X@std@@@sam_custom_messages@@@mwboost@@@mwboost@@AEAAXU?$DefaultMessageCreator@U?$hand_pos_@V?$allocator@X@std@@@sam_custom_messages@@@ros@@@Z
	??$assign_to@U?$DefaultMessageCreator@U?$object_state_@V?$allocator@X@std@@@sam_custom_messages@@@ros@@@?$function0@V?$shared_ptr@U?$object_state_@V?$allocator@X@std@@@sam_custom_messages@@@mwboost@@@mwboost@@AEAAXU?$DefaultMessageCreator@U?$object_state_@V?$allocator@X@std@@@sam_custom_messages@@@ros@@@Z
	??$assign_to@U?$DefaultMessageCreator@U?$robot_state_@V?$allocator@X@std@@@sam_custom_messages@@@ros@@@?$function0@V?$shared_ptr@U?$robot_state_@V?$allocator@X@std@@@sam_custom_messages@@@mwboost@@@mwboost@@AEAAXU?$DefaultMessageCreator@U?$robot_state_@V?$allocator@X@std@@@sam_custom_messages@@@ros@@@Z
	??$assign_to@U?$DefaultMessageCreator@U?$user_prediction_@V?$allocator@X@std@@@sam_custom_messages@@@ros@@@?$function0@V?$shared_ptr@U?$user_prediction_@V?$allocator@X@std@@@sam_custom_messages@@@mwboost@@@mwboost@@AEAAXU?$DefaultMessageCreator@U?$user_prediction_@V?$allocator@X@std@@@sam_custom_messages@@@ros@@@Z
	??$assign_to@V?$bind_t@VSerializedMessage@ros@@P6A?AV12@AEBU?$Object_@V?$allocator@X@std@@@sam_custom_messages@@@ZV?$list1@V?$reference_wrapper@U?$Object_@V?$allocator@X@std@@@sam_custom_messages@@@mwboost@@@_bi@mwboost@@@_bi@mwboost@@@?$function0@VSerializedMessage@ros@@@mwboost@@AEAAXV?$bind_t@VSerializedMessage@ros@@P6A?AV12@AEBU?$Object_@V?$allocator@X@std@@@sam_custom_messages@@@ZV?$list1@V?$reference_wrapper@U?$Object_@V?$allocator@X@std@@@sam_custom_messages@@@mwboost@@@_bi@mwboost@@@_bi@1@@Z
	??$assign_to@V?$bind_t@VSerializedMessage@ros@@P6A?AV12@AEBU?$capability_@V?$allocator@X@std@@@sam_custom_messages@@@ZV?$list1@V?$reference_wrapper@U?$capability_@V?$allocator@X@std@@@sam_custom_messages@@@mwboost@@@_bi@mwboost@@@_bi@mwboost@@@?$function0@VSerializedMessage@ros@@@mwboost@@AEAAXV?$bind_t@VSerializedMessage@ros@@P6A?AV12@AEBU?$capability_@V?$allocator@X@std@@@sam_custom_messages@@@ZV?$list1@V?$reference_wrapper@U?$capability_@V?$allocator@X@std@@@sam_custom_messages@@@mwboost@@@_bi@mwboost@@@_bi@1@@Z
	??$assign_to@V?$bind_t@VSerializedMessage@ros@@P6A?AV12@AEBU?$current_action_@V?$allocator@X@std@@@sam_custom_messages@@@ZV?$list1@V?$reference_wrapper@U?$current_action_@V?$allocator@X@std@@@sam_custom_messages@@@mwboost@@@_bi@mwboost@@@_bi@mwboost@@@?$function0@VSerializedMessage@ros@@@mwboost@@AEAAXV?$bind_t@VSerializedMessage@ros@@P6A?AV12@AEBU?$current_action_@V?$allocator@X@std@@@sam_custom_messages@@@ZV?$list1@V?$reference_wrapper@U?$current_action_@V?$allocator@X@std@@@sam_custom_messages@@@mwboost@@@_bi@mwboost@@@_bi@1@@Z
	??$assign_to@V?$bind_t@VSerializedMessage@ros@@P6A?AV12@AEBU?$diagnostics_@V?$allocator@X@std@@@sam_custom_messages@@@ZV?$list1@V?$reference_wrapper@U?$diagnostics_@V?$allocator@X@std@@@sam_custom_messages@@@mwboost@@@_bi@mwboost@@@_bi@mwboost@@@?$function0@VSerializedMessage@ros@@@mwboost@@AEAAXV?$bind_t@VSerializedMessage@ros@@P6A?AV12@AEBU?$diagnostics_@V?$allocator@X@std@@@sam_custom_messages@@@ZV?$list1@V?$reference_wrapper@U?$diagnostics_@V?$allocator@X@std@@@sam_custom_messages@@@mwboost@@@_bi@mwboost@@@_bi@1@@Z
	??$assign_to@V?$bind_t@VSerializedMessage@ros@@P6A?AV12@AEBU?$hand_pos_@V?$allocator@X@std@@@sam_custom_messages@@@ZV?$list1@V?$reference_wrapper@U?$hand_pos_@V?$allocator@X@std@@@sam_custom_messages@@@mwboost@@@_bi@mwboost@@@_bi@mwboost@@@?$function0@VSerializedMessage@ros@@@mwboost@@AEAAXV?$bind_t@VSerializedMessage@ros@@P6A?AV12@AEBU?$hand_pos_@V?$allocator@X@std@@@sam_custom_messages@@@ZV?$list1@V?$reference_wrapper@U?$hand_pos_@V?$allocator@X@std@@@sam_custom_messages@@@mwboost@@@_bi@mwboost@@@_bi@1@@Z
	??$assign_to@V?$bind_t@VSerializedMessage@ros@@P6A?AV12@AEBU?$object_state_@V?$allocator@X@std@@@sam_custom_messages@@@ZV?$list1@V?$reference_wrapper@U?$object_state_@V?$allocator@X@std@@@sam_custom_messages@@@mwboost@@@_bi@mwboost@@@_bi@mwboost@@@?$function0@VSerializedMessage@ros@@@mwboost@@AEAAXV?$bind_t@VSerializedMessage@ros@@P6A?AV12@AEBU?$object_state_@V?$allocator@X@std@@@sam_custom_messages@@@ZV?$list1@V?$reference_wrapper@U?$object_state_@V?$allocator@X@std@@@sam_custom_messages@@@mwboost@@@_bi@mwboost@@@_bi@1@@Z
	??$assign_to@V?$bind_t@VSerializedMessage@ros@@P6A?AV12@AEBU?$robot_state_@V?$allocator@X@std@@@sam_custom_messages@@@ZV?$list1@V?$reference_wrapper@U?$robot_state_@V?$allocator@X@std@@@sam_custom_messages@@@mwboost@@@_bi@mwboost@@@_bi@mwboost@@@?$function0@VSerializedMessage@ros@@@mwboost@@AEAAXV?$bind_t@VSerializedMessage@ros@@P6A?AV12@AEBU?$robot_state_@V?$allocator@X@std@@@sam_custom_messages@@@ZV?$list1@V?$reference_wrapper@U?$robot_state_@V?$allocator@X@std@@@sam_custom_messages@@@mwboost@@@_bi@mwboost@@@_bi@1@@Z
	??$assign_to@V?$bind_t@VSerializedMessage@ros@@P6A?AV12@AEBU?$user_prediction_@V?$allocator@X@std@@@sam_custom_messages@@@ZV?$list1@V?$reference_wrapper@U?$user_prediction_@V?$allocator@X@std@@@sam_custom_messages@@@mwboost@@@_bi@mwboost@@@_bi@mwboost@@@?$function0@VSerializedMessage@ros@@@mwboost@@AEAAXV?$bind_t@VSerializedMessage@ros@@P6A?AV12@AEBU?$user_prediction_@V?$allocator@X@std@@@sam_custom_messages@@@ZV?$list1@V?$reference_wrapper@U?$user_prediction_@V?$allocator@X@std@@@sam_custom_messages@@@mwboost@@@_bi@mwboost@@@_bi@1@@Z
	??$assign_to@V?$bind_t@XV?$mf1@XVsam_custom_messages_msg_Object_subscriber@@AEBV?$shared_ptr@$$CBU?$Object_@V?$allocator@X@std@@@sam_custom_messages@@@mwboost@@@_mfi@mwboost@@V?$list2@V?$value@PEAVsam_custom_messages_msg_Object_subscriber@@@_bi@mwboost@@U?$arg@$00@3@@_bi@3@@_bi@mwboost@@@?$function1@XAEBV?$shared_ptr@$$CBU?$Object_@V?$allocator@X@std@@@sam_custom_messages@@@mwboost@@@mwboost@@AEAAXV?$bind_t@XV?$mf1@XVsam_custom_messages_msg_Object_subscriber@@AEBV?$shared_ptr@$$CBU?$Object_@V?$allocator@X@std@@@sam_custom_messages@@@mwboost@@@_mfi@mwboost@@V?$list2@V?$value@PEAVsam_custom_messages_msg_Object_subscriber@@@_bi@mwboost@@U?$arg@$00@3@@_bi@3@@_bi@1@@Z
	??$assign_to@V?$bind_t@XV?$mf1@XVsam_custom_messages_msg_capability_subscriber@@AEBV?$shared_ptr@$$CBU?$capability_@V?$allocator@X@std@@@sam_custom_messages@@@mwboost@@@_mfi@mwboost@@V?$list2@V?$value@PEAVsam_custom_messages_msg_capability_subscriber@@@_bi@mwboost@@U?$arg@$00@3@@_bi@3@@_bi@mwboost@@@?$function1@XAEBV?$shared_ptr@$$CBU?$capability_@V?$allocator@X@std@@@sam_custom_messages@@@mwboost@@@mwboost@@AEAAXV?$bind_t@XV?$mf1@XVsam_custom_messages_msg_capability_subscriber@@AEBV?$shared_ptr@$$CBU?$capability_@V?$allocator@X@std@@@sam_custom_messages@@@mwboost@@@_mfi@mwboost@@V?$list2@V?$value@PEAVsam_custom_messages_msg_capability_subscriber@@@_bi@mwboost@@U?$arg@$00@3@@_bi@3@@_bi@1@@Z
	??$assign_to@V?$bind_t@XV?$mf1@XVsam_custom_messages_msg_current_action_subscriber@@AEBV?$shared_ptr@$$CBU?$current_action_@V?$allocator@X@std@@@sam_custom_messages@@@mwboost@@@_mfi@mwboost@@V?$list2@V?$value@PEAVsam_custom_messages_msg_current_action_subscriber@@@_bi@mwboost@@U?$arg@$00@3@@_bi@3@@_bi@mwboost@@@?$function1@XAEBV?$shared_ptr@$$CBU?$current_action_@V?$allocator@X@std@@@sam_custom_messages@@@mwboost@@@mwboost@@AEAAXV?$bind_t@XV?$mf1@XVsam_custom_messages_msg_current_action_subscriber@@AEBV?$shared_ptr@$$CBU?$current_action_@V?$allocator@X@std@@@sam_custom_messages@@@mwboost@@@_mfi@mwboost@@V?$list2@V?$value@PEAVsam_custom_messages_msg_current_action_subscriber@@@_bi@mwboost@@U?$arg@$00@3@@_bi@3@@_bi@1@@Z
	??$assign_to@V?$bind_t@XV?$mf1@XVsam_custom_messages_msg_diagnostics_subscriber@@AEBV?$shared_ptr@$$CBU?$diagnostics_@V?$allocator@X@std@@@sam_custom_messages@@@mwboost@@@_mfi@mwboost@@V?$list2@V?$value@PEAVsam_custom_messages_msg_diagnostics_subscriber@@@_bi@mwboost@@U?$arg@$00@3@@_bi@3@@_bi@mwboost@@@?$function1@XAEBV?$shared_ptr@$$CBU?$diagnostics_@V?$allocator@X@std@@@sam_custom_messages@@@mwboost@@@mwboost@@AEAAXV?$bind_t@XV?$mf1@XVsam_custom_messages_msg_diagnostics_subscriber@@AEBV?$shared_ptr@$$CBU?$diagnostics_@V?$allocator@X@std@@@sam_custom_messages@@@mwboost@@@_mfi@mwboost@@V?$list2@V?$value@PEAVsam_custom_messages_msg_diagnostics_subscriber@@@_bi@mwboost@@U?$arg@$00@3@@_bi@3@@_bi@1@@Z
	??$assign_to@V?$bind_t@XV?$mf1@XVsam_custom_messages_msg_hand_pos_subscriber@@AEBV?$shared_ptr@$$CBU?$hand_pos_@V?$allocator@X@std@@@sam_custom_messages@@@mwboost@@@_mfi@mwboost@@V?$list2@V?$value@PEAVsam_custom_messages_msg_hand_pos_subscriber@@@_bi@mwboost@@U?$arg@$00@3@@_bi@3@@_bi@mwboost@@@?$function1@XAEBV?$shared_ptr@$$CBU?$hand_pos_@V?$allocator@X@std@@@sam_custom_messages@@@mwboost@@@mwboost@@AEAAXV?$bind_t@XV?$mf1@XVsam_custom_messages_msg_hand_pos_subscriber@@AEBV?$shared_ptr@$$CBU?$hand_pos_@V?$allocator@X@std@@@sam_custom_messages@@@mwboost@@@_mfi@mwboost@@V?$list2@V?$value@PEAVsam_custom_messages_msg_hand_pos_subscriber@@@_bi@mwboost@@U?$arg@$00@3@@_bi@3@@_bi@1@@Z
	??$assign_to@V?$bind_t@XV?$mf1@XVsam_custom_messages_msg_object_state_subscriber@@AEBV?$shared_ptr@$$CBU?$object_state_@V?$allocator@X@std@@@sam_custom_messages@@@mwboost@@@_mfi@mwboost@@V?$list2@V?$value@PEAVsam_custom_messages_msg_object_state_subscriber@@@_bi@mwboost@@U?$arg@$00@3@@_bi@3@@_bi@mwboost@@@?$function1@XAEBV?$shared_ptr@$$CBU?$object_state_@V?$allocator@X@std@@@sam_custom_messages@@@mwboost@@@mwboost@@AEAAXV?$bind_t@XV?$mf1@XVsam_custom_messages_msg_object_state_subscriber@@AEBV?$shared_ptr@$$CBU?$object_state_@V?$allocator@X@std@@@sam_custom_messages@@@mwboost@@@_mfi@mwboost@@V?$list2@V?$value@PEAVsam_custom_messages_msg_object_state_subscriber@@@_bi@mwboost@@U?$arg@$00@3@@_bi@3@@_bi@1@@Z
	??$assign_to@V?$bind_t@XV?$mf1@XVsam_custom_messages_msg_robot_state_subscriber@@AEBV?$shared_ptr@$$CBU?$robot_state_@V?$allocator@X@std@@@sam_custom_messages@@@mwboost@@@_mfi@mwboost@@V?$list2@V?$value@PEAVsam_custom_messages_msg_robot_state_subscriber@@@_bi@mwboost@@U?$arg@$00@3@@_bi@3@@_bi@mwboost@@@?$function1@XAEBV?$shared_ptr@$$CBU?$robot_state_@V?$allocator@X@std@@@sam_custom_messages@@@mwboost@@@mwboost@@AEAAXV?$bind_t@XV?$mf1@XVsam_custom_messages_msg_robot_state_subscriber@@AEBV?$shared_ptr@$$CBU?$robot_state_@V?$allocator@X@std@@@sam_custom_messages@@@mwboost@@@_mfi@mwboost@@V?$list2@V?$value@PEAVsam_custom_messages_msg_robot_state_subscriber@@@_bi@mwboost@@U?$arg@$00@3@@_bi@3@@_bi@1@@Z
	??$assign_to@V?$bind_t@XV?$mf1@XVsam_custom_messages_msg_user_prediction_subscriber@@AEBV?$shared_ptr@$$CBU?$user_prediction_@V?$allocator@X@std@@@sam_custom_messages@@@mwboost@@@_mfi@mwboost@@V?$list2@V?$value@PEAVsam_custom_messages_msg_user_prediction_subscriber@@@_bi@mwboost@@U?$arg@$00@3@@_bi@3@@_bi@mwboost@@@?$function1@XAEBV?$shared_ptr@$$CBU?$user_prediction_@V?$allocator@X@std@@@sam_custom_messages@@@mwboost@@@mwboost@@AEAAXV?$bind_t@XV?$mf1@XVsam_custom_messages_msg_user_prediction_subscriber@@AEBV?$shared_ptr@$$CBU?$user_prediction_@V?$allocator@X@std@@@sam_custom_messages@@@mwboost@@@_mfi@mwboost@@V?$list2@V?$value@PEAVsam_custom_messages_msg_user_prediction_subscriber@@@_bi@mwboost@@U?$arg@$00@3@@_bi@3@@_bi@1@@Z
	??$assign_to@V?$function@$$A6AXAEBV?$shared_ptr@$$CBU?$Object_@V?$allocator@X@std@@@sam_custom_messages@@@mwboost@@@Z@mwboost@@@?$basic_vtable1@XV?$shared_ptr@$$CBU?$Object_@V?$allocator@X@std@@@sam_custom_messages@@@mwboost@@@function@detail@mwboost@@AEBA_NV?$function@$$A6AXAEBV?$shared_ptr@$$CBU?$Object_@V?$allocator@X@std@@@sam_custom_messages@@@mwboost@@@Z@3@AEATfunction_buffer@123@Ufunction_obj_tag@123@@Z
	??$assign_to@V?$function@$$A6AXAEBV?$shared_ptr@$$CBU?$Object_@V?$allocator@X@std@@@sam_custom_messages@@@mwboost@@@Z@mwboost@@@?$function1@XV?$shared_ptr@$$CBU?$Object_@V?$allocator@X@std@@@sam_custom_messages@@@mwboost@@@mwboost@@AEAAXV?$function@$$A6AXAEBV?$shared_ptr@$$CBU?$Object_@V?$allocator@X@std@@@sam_custom_messages@@@mwboost@@@Z@1@@Z
	??$assign_to@V?$function@$$A6AXAEBV?$shared_ptr@$$CBU?$capability_@V?$allocator@X@std@@@sam_custom_messages@@@mwboost@@@Z@mwboost@@@?$basic_vtable1@XV?$shared_ptr@$$CBU?$capability_@V?$allocator@X@std@@@sam_custom_messages@@@mwboost@@@function@detail@mwboost@@AEBA_NV?$function@$$A6AXAEBV?$shared_ptr@$$CBU?$capability_@V?$allocator@X@std@@@sam_custom_messages@@@mwboost@@@Z@3@AEATfunction_buffer@123@Ufunction_obj_tag@123@@Z
	??$assign_to@V?$function@$$A6AXAEBV?$shared_ptr@$$CBU?$capability_@V?$allocator@X@std@@@sam_custom_messages@@@mwboost@@@Z@mwboost@@@?$function1@XV?$shared_ptr@$$CBU?$capability_@V?$allocator@X@std@@@sam_custom_messages@@@mwboost@@@mwboost@@AEAAXV?$function@$$A6AXAEBV?$shared_ptr@$$CBU?$capability_@V?$allocator@X@std@@@sam_custom_messages@@@mwboost@@@Z@1@@Z
	??$assign_to@V?$function@$$A6AXAEBV?$shared_ptr@$$CBU?$current_action_@V?$allocator@X@std@@@sam_custom_messages@@@mwboost@@@Z@mwboost@@@?$basic_vtable1@XV?$shared_ptr@$$CBU?$current_action_@V?$allocator@X@std@@@sam_custom_messages@@@mwboost@@@function@detail@mwboost@@AEBA_NV?$function@$$A6AXAEBV?$shared_ptr@$$CBU?$current_action_@V?$allocator@X@std@@@sam_custom_messages@@@mwboost@@@Z@3@AEATfunction_buffer@123@Ufunction_obj_tag@123@@Z
	??$assign_to@V?$function@$$A6AXAEBV?$shared_ptr@$$CBU?$current_action_@V?$allocator@X@std@@@sam_custom_messages@@@mwboost@@@Z@mwboost@@@?$function1@XV?$shared_ptr@$$CBU?$current_action_@V?$allocator@X@std@@@sam_custom_messages@@@mwboost@@@mwboost@@AEAAXV?$function@$$A6AXAEBV?$shared_ptr@$$CBU?$current_action_@V?$allocator@X@std@@@sam_custom_messages@@@mwboost@@@Z@1@@Z
	??$assign_to@V?$function@$$A6AXAEBV?$shared_ptr@$$CBU?$diagnostics_@V?$allocator@X@std@@@sam_custom_messages@@@mwboost@@@Z@mwboost@@@?$basic_vtable1@XV?$shared_ptr@$$CBU?$diagnostics_@V?$allocator@X@std@@@sam_custom_messages@@@mwboost@@@function@detail@mwboost@@AEBA_NV?$function@$$A6AXAEBV?$shared_ptr@$$CBU?$diagnostics_@V?$allocator@X@std@@@sam_custom_messages@@@mwboost@@@Z@3@AEATfunction_buffer@123@Ufunction_obj_tag@123@@Z
	??$assign_to@V?$function@$$A6AXAEBV?$shared_ptr@$$CBU?$diagnostics_@V?$allocator@X@std@@@sam_custom_messages@@@mwboost@@@Z@mwboost@@@?$function1@XV?$shared_ptr@$$CBU?$diagnostics_@V?$allocator@X@std@@@sam_custom_messages@@@mwboost@@@mwboost@@AEAAXV?$function@$$A6AXAEBV?$shared_ptr@$$CBU?$diagnostics_@V?$allocator@X@std@@@sam_custom_messages@@@mwboost@@@Z@1@@Z
	??$assign_to@V?$function@$$A6AXAEBV?$shared_ptr@$$CBU?$hand_pos_@V?$allocator@X@std@@@sam_custom_messages@@@mwboost@@@Z@mwboost@@@?$basic_vtable1@XV?$shared_ptr@$$CBU?$hand_pos_@V?$allocator@X@std@@@sam_custom_messages@@@mwboost@@@function@detail@mwboost@@AEBA_NV?$function@$$A6AXAEBV?$shared_ptr@$$CBU?$hand_pos_@V?$allocator@X@std@@@sam_custom_messages@@@mwboost@@@Z@3@AEATfunction_buffer@123@Ufunction_obj_tag@123@@Z
	??$assign_to@V?$function@$$A6AXAEBV?$shared_ptr@$$CBU?$hand_pos_@V?$allocator@X@std@@@sam_custom_messages@@@mwboost@@@Z@mwboost@@@?$function1@XV?$shared_ptr@$$CBU?$hand_pos_@V?$allocator@X@std@@@sam_custom_messages@@@mwboost@@@mwboost@@AEAAXV?$function@$$A6AXAEBV?$shared_ptr@$$CBU?$hand_pos_@V?$allocator@X@std@@@sam_custom_messages@@@mwboost@@@Z@1@@Z
	??$assign_to@V?$function@$$A6AXAEBV?$shared_ptr@$$CBU?$object_state_@V?$allocator@X@std@@@sam_custom_messages@@@mwboost@@@Z@mwboost@@@?$basic_vtable1@XV?$shared_ptr@$$CBU?$object_state_@V?$allocator@X@std@@@sam_custom_messages@@@mwboost@@@function@detail@mwboost@@AEBA_NV?$function@$$A6AXAEBV?$shared_ptr@$$CBU?$object_state_@V?$allocator@X@std@@@sam_custom_messages@@@mwboost@@@Z@3@AEATfunction_buffer@123@Ufunction_obj_tag@123@@Z
	??$assign_to@V?$function@$$A6AXAEBV?$shared_ptr@$$CBU?$object_state_@V?$allocator@X@std@@@sam_custom_messages@@@mwboost@@@Z@mwboost@@@?$function1@XV?$shared_ptr@$$CBU?$object_state_@V?$allocator@X@std@@@sam_custom_messages@@@mwboost@@@mwboost@@AEAAXV?$function@$$A6AXAEBV?$shared_ptr@$$CBU?$object_state_@V?$allocator@X@std@@@sam_custom_messages@@@mwboost@@@Z@1@@Z
	??$assign_to@V?$function@$$A6AXAEBV?$shared_ptr@$$CBU?$robot_state_@V?$allocator@X@std@@@sam_custom_messages@@@mwboost@@@Z@mwboost@@@?$basic_vtable1@XV?$shared_ptr@$$CBU?$robot_state_@V?$allocator@X@std@@@sam_custom_messages@@@mwboost@@@function@detail@mwboost@@AEBA_NV?$function@$$A6AXAEBV?$shared_ptr@$$CBU?$robot_state_@V?$allocator@X@std@@@sam_custom_messages@@@mwboost@@@Z@3@AEATfunction_buffer@123@Ufunction_obj_tag@123@@Z
	??$assign_to@V?$function@$$A6AXAEBV?$shared_ptr@$$CBU?$robot_state_@V?$allocator@X@std@@@sam_custom_messages@@@mwboost@@@Z@mwboost@@@?$function1@XV?$shared_ptr@$$CBU?$robot_state_@V?$allocator@X@std@@@sam_custom_messages@@@mwboost@@@mwboost@@AEAAXV?$function@$$A6AXAEBV?$shared_ptr@$$CBU?$robot_state_@V?$allocator@X@std@@@sam_custom_messages@@@mwboost@@@Z@1@@Z
	??$assign_to@V?$function@$$A6AXAEBV?$shared_ptr@$$CBU?$user_prediction_@V?$allocator@X@std@@@sam_custom_messages@@@mwboost@@@Z@mwboost@@@?$basic_vtable1@XV?$shared_ptr@$$CBU?$user_prediction_@V?$allocator@X@std@@@sam_custom_messages@@@mwboost@@@function@detail@mwboost@@AEBA_NV?$function@$$A6AXAEBV?$shared_ptr@$$CBU?$user_prediction_@V?$allocator@X@std@@@sam_custom_messages@@@mwboost@@@Z@3@AEATfunction_buffer@123@Ufunction_obj_tag@123@@Z
	??$assign_to@V?$function@$$A6AXAEBV?$shared_ptr@$$CBU?$user_prediction_@V?$allocator@X@std@@@sam_custom_messages@@@mwboost@@@Z@mwboost@@@?$function1@XV?$shared_ptr@$$CBU?$user_prediction_@V?$allocator@X@std@@@sam_custom_messages@@@mwboost@@@mwboost@@AEAAXV?$function@$$A6AXAEBV?$shared_ptr@$$CBU?$user_prediction_@V?$allocator@X@std@@@sam_custom_messages@@@mwboost@@@Z@1@@Z
	??$bind@VSerializedMessage@ros@@AEBU?$Object_@V?$allocator@X@std@@@sam_custom_messages@@V?$reference_wrapper@U?$Object_@V?$allocator@X@std@@@sam_custom_messages@@@mwboost@@@mwboost@@YA?AV?$bind_t@VSerializedMessage@ros@@P6A?AV12@AEBU?$Object_@V?$allocator@X@std@@@sam_custom_messages@@@ZV?$list1@V?$reference_wrapper@U?$Object_@V?$allocator@X@std@@@sam_custom_messages@@@mwboost@@@_bi@mwboost@@@_bi@0@P6A?AVSerializedMessage@ros@@AEBU?$Object_@V?$allocator@X@std@@@sam_custom_messages@@@ZV?$reference_wrapper@U?$Object_@V?$allocator@X@std@@@sam_custom_messages@@@0@@Z
	??$bind@VSerializedMessage@ros@@AEBU?$capability_@V?$allocator@X@std@@@sam_custom_messages@@V?$reference_wrapper@U?$capability_@V?$allocator@X@std@@@sam_custom_messages@@@mwboost@@@mwboost@@YA?AV?$bind_t@VSerializedMessage@ros@@P6A?AV12@AEBU?$capability_@V?$allocator@X@std@@@sam_custom_messages@@@ZV?$list1@V?$reference_wrapper@U?$capability_@V?$allocator@X@std@@@sam_custom_messages@@@mwboost@@@_bi@mwboost@@@_bi@0@P6A?AVSerializedMessage@ros@@AEBU?$capability_@V?$allocator@X@std@@@sam_custom_messages@@@ZV?$reference_wrapper@U?$capability_@V?$allocator@X@std@@@sam_custom_messages@@@0@@Z
	??$bind@VSerializedMessage@ros@@AEBU?$current_action_@V?$allocator@X@std@@@sam_custom_messages@@V?$reference_wrapper@U?$current_action_@V?$allocator@X@std@@@sam_custom_messages@@@mwboost@@@mwboost@@YA?AV?$bind_t@VSerializedMessage@ros@@P6A?AV12@AEBU?$current_action_@V?$allocator@X@std@@@sam_custom_messages@@@ZV?$list1@V?$reference_wrapper@U?$current_action_@V?$allocator@X@std@@@sam_custom_messages@@@mwboost@@@_bi@mwboost@@@_bi@0@P6A?AVSerializedMessage@ros@@AEBU?$current_action_@V?$allocator@X@std@@@sam_custom_messages@@@ZV?$reference_wrapper@U?$current_action_@V?$allocator@X@std@@@sam_custom_messages@@@0@@Z
	??$bind@VSerializedMessage@ros@@AEBU?$diagnostics_@V?$allocator@X@std@@@sam_custom_messages@@V?$reference_wrapper@U?$diagnostics_@V?$allocator@X@std@@@sam_custom_messages@@@mwboost@@@mwboost@@YA?AV?$bind_t@VSerializedMessage@ros@@P6A?AV12@AEBU?$diagnostics_@V?$allocator@X@std@@@sam_custom_messages@@@ZV?$list1@V?$reference_wrapper@U?$diagnostics_@V?$allocator@X@std@@@sam_custom_messages@@@mwboost@@@_bi@mwboost@@@_bi@0@P6A?AVSerializedMessage@ros@@AEBU?$diagnostics_@V?$allocator@X@std@@@sam_custom_messages@@@ZV?$reference_wrapper@U?$diagnostics_@V?$allocator@X@std@@@sam_custom_messages@@@0@@Z
	??$bind@VSerializedMessage@ros@@AEBU?$hand_pos_@V?$allocator@X@std@@@sam_custom_messages@@V?$reference_wrapper@U?$hand_pos_@V?$allocator@X@std@@@sam_custom_messages@@@mwboost@@@mwboost@@YA?AV?$bind_t@VSerializedMessage@ros@@P6A?AV12@AEBU?$hand_pos_@V?$allocator@X@std@@@sam_custom_messages@@@ZV?$list1@V?$reference_wrapper@U?$hand_pos_@V?$allocator@X@std@@@sam_custom_messages@@@mwboost@@@_bi@mwboost@@@_bi@0@P6A?AVSerializedMessage@ros@@AEBU?$hand_pos_@V?$allocator@X@std@@@sam_custom_messages@@@ZV?$reference_wrapper@U?$hand_pos_@V?$allocator@X@std@@@sam_custom_messages@@@0@@Z
	??$bind@VSerializedMessage@ros@@AEBU?$object_state_@V?$allocator@X@std@@@sam_custom_messages@@V?$reference_wrapper@U?$object_state_@V?$allocator@X@std@@@sam_custom_messages@@@mwboost@@@mwboost@@YA?AV?$bind_t@VSerializedMessage@ros@@P6A?AV12@AEBU?$object_state_@V?$allocator@X@std@@@sam_custom_messages@@@ZV?$list1@V?$reference_wrapper@U?$object_state_@V?$allocator@X@std@@@sam_custom_messages@@@mwboost@@@_bi@mwboost@@@_bi@0@P6A?AVSerializedMessage@ros@@AEBU?$object_state_@V?$allocator@X@std@@@sam_custom_messages@@@ZV?$reference_wrapper@U?$object_state_@V?$allocator@X@std@@@sam_custom_messages@@@0@@Z
	??$bind@VSerializedMessage@ros@@AEBU?$robot_state_@V?$allocator@X@std@@@sam_custom_messages@@V?$reference_wrapper@U?$robot_state_@V?$allocator@X@std@@@sam_custom_messages@@@mwboost@@@mwboost@@YA?AV?$bind_t@VSerializedMessage@ros@@P6A?AV12@AEBU?$robot_state_@V?$allocator@X@std@@@sam_custom_messages@@@ZV?$list1@V?$reference_wrapper@U?$robot_state_@V?$allocator@X@std@@@sam_custom_messages@@@mwboost@@@_bi@mwboost@@@_bi@0@P6A?AVSerializedMessage@ros@@AEBU?$robot_state_@V?$allocator@X@std@@@sam_custom_messages@@@ZV?$reference_wrapper@U?$robot_state_@V?$allocator@X@std@@@sam_custom_messages@@@0@@Z
	??$bind@VSerializedMessage@ros@@AEBU?$user_prediction_@V?$allocator@X@std@@@sam_custom_messages@@V?$reference_wrapper@U?$user_prediction_@V?$allocator@X@std@@@sam_custom_messages@@@mwboost@@@mwboost@@YA?AV?$bind_t@VSerializedMessage@ros@@P6A?AV12@AEBU?$user_prediction_@V?$allocator@X@std@@@sam_custom_messages@@@ZV?$list1@V?$reference_wrapper@U?$user_prediction_@V?$allocator@X@std@@@sam_custom_messages@@@mwboost@@@_bi@mwboost@@@_bi@0@P6A?AVSerializedMessage@ros@@AEBU?$user_prediction_@V?$allocator@X@std@@@sam_custom_messages@@@ZV?$reference_wrapper@U?$user_prediction_@V?$allocator@X@std@@@sam_custom_messages@@@0@@Z
	??$bind@XVsam_custom_messages_msg_Object_subscriber@@AEBV?$shared_ptr@$$CBU?$Object_@V?$allocator@X@std@@@sam_custom_messages@@@mwboost@@PEAV1@U?$arg@$00@3@@mwboost@@YA?AV?$bind_t@XV?$mf1@XVsam_custom_messages_msg_Object_subscriber@@AEBV?$shared_ptr@$$CBU?$Object_@V?$allocator@X@std@@@sam_custom_messages@@@mwboost@@@_mfi@mwboost@@V?$list2@V?$value@PEAVsam_custom_messages_msg_Object_subscriber@@@_bi@mwboost@@U?$arg@$00@3@@_bi@3@@_bi@0@P8sam_custom_messages_msg_Object_subscriber@@EAAXAEBV?$shared_ptr@$$CBU?$Object_@V?$allocator@X@std@@@sam_custom_messages@@@0@@ZPEAV3@U?$arg@$00@0@@Z
	??$bind@XVsam_custom_messages_msg_capability_subscriber@@AEBV?$shared_ptr@$$CBU?$capability_@V?$allocator@X@std@@@sam_custom_messages@@@mwboost@@PEAV1@U?$arg@$00@3@@mwboost@@YA?AV?$bind_t@XV?$mf1@XVsam_custom_messages_msg_capability_subscriber@@AEBV?$shared_ptr@$$CBU?$capability_@V?$allocator@X@std@@@sam_custom_messages@@@mwboost@@@_mfi@mwboost@@V?$list2@V?$value@PEAVsam_custom_messages_msg_capability_subscriber@@@_bi@mwboost@@U?$arg@$00@3@@_bi@3@@_bi@0@P8sam_custom_messages_msg_capability_subscriber@@EAAXAEBV?$shared_ptr@$$CBU?$capability_@V?$allocator@X@std@@@sam_custom_messages@@@0@@ZPEAV3@U?$arg@$00@0@@Z
	??$bind@XVsam_custom_messages_msg_current_action_subscriber@@AEBV?$shared_ptr@$$CBU?$current_action_@V?$allocator@X@std@@@sam_custom_messages@@@mwboost@@PEAV1@U?$arg@$00@3@@mwboost@@YA?AV?$bind_t@XV?$mf1@XVsam_custom_messages_msg_current_action_subscriber@@AEBV?$shared_ptr@$$CBU?$current_action_@V?$allocator@X@std@@@sam_custom_messages@@@mwboost@@@_mfi@mwboost@@V?$list2@V?$value@PEAVsam_custom_messages_msg_current_action_subscriber@@@_bi@mwboost@@U?$arg@$00@3@@_bi@3@@_bi@0@P8sam_custom_messages_msg_current_action_subscriber@@EAAXAEBV?$shared_ptr@$$CBU?$current_action_@V?$allocator@X@std@@@sam_custom_messages@@@0@@ZPEAV3@U?$arg@$00@0@@Z
	??$bind@XVsam_custom_messages_msg_diagnostics_subscriber@@AEBV?$shared_ptr@$$CBU?$diagnostics_@V?$allocator@X@std@@@sam_custom_messages@@@mwboost@@PEAV1@U?$arg@$00@3@@mwboost@@YA?AV?$bind_t@XV?$mf1@XVsam_custom_messages_msg_diagnostics_subscriber@@AEBV?$shared_ptr@$$CBU?$diagnostics_@V?$allocator@X@std@@@sam_custom_messages@@@mwboost@@@_mfi@mwboost@@V?$list2@V?$value@PEAVsam_custom_messages_msg_diagnostics_subscriber@@@_bi@mwboost@@U?$arg@$00@3@@_bi@3@@_bi@0@P8sam_custom_messages_msg_diagnostics_subscriber@@EAAXAEBV?$shared_ptr@$$CBU?$diagnostics_@V?$allocator@X@std@@@sam_custom_messages@@@0@@ZPEAV3@U?$arg@$00@0@@Z
	??$bind@XVsam_custom_messages_msg_hand_pos_subscriber@@AEBV?$shared_ptr@$$CBU?$hand_pos_@V?$allocator@X@std@@@sam_custom_messages@@@mwboost@@PEAV1@U?$arg@$00@3@@mwboost@@YA?AV?$bind_t@XV?$mf1@XVsam_custom_messages_msg_hand_pos_subscriber@@AEBV?$shared_ptr@$$CBU?$hand_pos_@V?$allocator@X@std@@@sam_custom_messages@@@mwboost@@@_mfi@mwboost@@V?$list2@V?$value@PEAVsam_custom_messages_msg_hand_pos_subscriber@@@_bi@mwboost@@U?$arg@$00@3@@_bi@3@@_bi@0@P8sam_custom_messages_msg_hand_pos_subscriber@@EAAXAEBV?$shared_ptr@$$CBU?$hand_pos_@V?$allocator@X@std@@@sam_custom_messages@@@0@@ZPEAV3@U?$arg@$00@0@@Z
	??$bind@XVsam_custom_messages_msg_object_state_subscriber@@AEBV?$shared_ptr@$$CBU?$object_state_@V?$allocator@X@std@@@sam_custom_messages@@@mwboost@@PEAV1@U?$arg@$00@3@@mwboost@@YA?AV?$bind_t@XV?$mf1@XVsam_custom_messages_msg_object_state_subscriber@@AEBV?$shared_ptr@$$CBU?$object_state_@V?$allocator@X@std@@@sam_custom_messages@@@mwboost@@@_mfi@mwboost@@V?$list2@V?$value@PEAVsam_custom_messages_msg_object_state_subscriber@@@_bi@mwboost@@U?$arg@$00@3@@_bi@3@@_bi@0@P8sam_custom_messages_msg_object_state_subscriber@@EAAXAEBV?$shared_ptr@$$CBU?$object_state_@V?$allocator@X@std@@@sam_custom_messages@@@0@@ZPEAV3@U?$arg@$00@0@@Z
	??$bind@XVsam_custom_messages_msg_robot_state_subscriber@@AEBV?$shared_ptr@$$CBU?$robot_state_@V?$allocator@X@std@@@sam_custom_messages@@@mwboost@@PEAV1@U?$arg@$00@3@@mwboost@@YA?AV?$bind_t@XV?$mf1@XVsam_custom_messages_msg_robot_state_subscriber@@AEBV?$shared_ptr@$$CBU?$robot_state_@V?$allocator@X@std@@@sam_custom_messages@@@mwboost@@@_mfi@mwboost@@V?$list2@V?$value@PEAVsam_custom_messages_msg_robot_state_subscriber@@@_bi@mwboost@@U?$arg@$00@3@@_bi@3@@_bi@0@P8sam_custom_messages_msg_robot_state_subscriber@@EAAXAEBV?$shared_ptr@$$CBU?$robot_state_@V?$allocator@X@std@@@sam_custom_messages@@@0@@ZPEAV3@U?$arg@$00@0@@Z
	??$bind@XVsam_custom_messages_msg_user_prediction_subscriber@@AEBV?$shared_ptr@$$CBU?$user_prediction_@V?$allocator@X@std@@@sam_custom_messages@@@mwboost@@PEAV1@U?$arg@$00@3@@mwboost@@YA?AV?$bind_t@XV?$mf1@XVsam_custom_messages_msg_user_prediction_subscriber@@AEBV?$shared_ptr@$$CBU?$user_prediction_@V?$allocator@X@std@@@sam_custom_messages@@@mwboost@@@_mfi@mwboost@@V?$list2@V?$value@PEAVsam_custom_messages_msg_user_prediction_subscriber@@@_bi@mwboost@@U?$arg@$00@3@@_bi@3@@_bi@0@P8sam_custom_messages_msg_user_prediction_subscriber@@EAAXAEBV?$shared_ptr@$$CBU?$user_prediction_@V?$allocator@X@std@@@sam_custom_messages@@@0@@ZPEAV3@U?$arg@$00@0@@Z
	??$castTo@V?$TypedArray@C@data@matlab@@$00@detail@data@matlab@@YA?AV?$TypedArray@C@12@V?$shared_ptr@VReferenceImpl@detail@data@matlab@@@std@@@Z
	??$castTo@V?$TypedArray@I@data@matlab@@$00@detail@data@matlab@@YA?AV?$TypedArray@I@12@V?$shared_ptr@VReferenceImpl@detail@data@matlab@@@std@@@Z
	??$castTo@V?$TypedArray@N@data@matlab@@$00@detail@data@matlab@@YA?AV?$TypedArray@N@12@V?$shared_ptr@VReferenceImpl@detail@data@matlab@@@std@@@Z
	??$castTo@V?$TypedArray@VArray@data@matlab@@@data@matlab@@$00@detail@data@matlab@@YA?AV?$TypedArray@VArray@data@matlab@@@12@V?$shared_ptr@VReferenceImpl@detail@data@matlab@@@std@@@Z
	??$castTo@VCharArray@data@matlab@@$00@detail@data@matlab@@YA?AVCharArray@12@V?$shared_ptr@VReferenceImpl@detail@data@matlab@@@std@@@Z
	??$castTo@VStructArray@data@matlab@@$00@detail@data@matlab@@YA?AVStructArray@12@V?$shared_ptr@VReferenceImpl@detail@data@matlab@@@std@@@Z
	??$const_pointer_cast@U?$Object_@V?$allocator@X@std@@@sam_custom_messages@@$$CBU12@@mwboost@@YA?AV?$shared_ptr@U?$Object_@V?$allocator@X@std@@@sam_custom_messages@@@0@$$QEAV?$shared_ptr@$$CBU?$Object_@V?$allocator@X@std@@@sam_custom_messages@@@0@@Z
	??$const_pointer_cast@U?$Object_@V?$allocator@X@std@@@sam_custom_messages@@$$CBU12@@mwboost@@YA?AV?$shared_ptr@U?$Object_@V?$allocator@X@std@@@sam_custom_messages@@@0@AEBV?$shared_ptr@$$CBU?$Object_@V?$allocator@X@std@@@sam_custom_messages@@@0@@Z
	??$const_pointer_cast@U?$capability_@V?$allocator@X@std@@@sam_custom_messages@@$$CBU12@@mwboost@@YA?AV?$shared_ptr@U?$capability_@V?$allocator@X@std@@@sam_custom_messages@@@0@$$QEAV?$shared_ptr@$$CBU?$capability_@V?$allocator@X@std@@@sam_custom_messages@@@0@@Z
	??$const_pointer_cast@U?$capability_@V?$allocator@X@std@@@sam_custom_messages@@$$CBU12@@mwboost@@YA?AV?$shared_ptr@U?$capability_@V?$allocator@X@std@@@sam_custom_messages@@@0@AEBV?$shared_ptr@$$CBU?$capability_@V?$allocator@X@std@@@sam_custom_messages@@@0@@Z
	??$const_pointer_cast@U?$current_action_@V?$allocator@X@std@@@sam_custom_messages@@$$CBU12@@mwboost@@YA?AV?$shared_ptr@U?$current_action_@V?$allocator@X@std@@@sam_custom_messages@@@0@$$QEAV?$shared_ptr@$$CBU?$current_action_@V?$allocator@X@std@@@sam_custom_messages@@@0@@Z
	??$const_pointer_cast@U?$current_action_@V?$allocator@X@std@@@sam_custom_messages@@$$CBU12@@mwboost@@YA?AV?$shared_ptr@U?$current_action_@V?$allocator@X@std@@@sam_custom_messages@@@0@AEBV?$shared_ptr@$$CBU?$current_action_@V?$allocator@X@std@@@sam_custom_messages@@@0@@Z
	??$const_pointer_cast@U?$diagnostics_@V?$allocator@X@std@@@sam_custom_messages@@$$CBU12@@mwboost@@YA?AV?$shared_ptr@U?$diagnostics_@V?$allocator@X@std@@@sam_custom_messages@@@0@$$QEAV?$shared_ptr@$$CBU?$diagnostics_@V?$allocator@X@std@@@sam_custom_messages@@@0@@Z
	??$const_pointer_cast@U?$diagnostics_@V?$allocator@X@std@@@sam_custom_messages@@$$CBU12@@mwboost@@YA?AV?$shared_ptr@U?$diagnostics_@V?$allocator@X@std@@@sam_custom_messages@@@0@AEBV?$shared_ptr@$$CBU?$diagnostics_@V?$allocator@X@std@@@sam_custom_messages@@@0@@Z
	??$const_pointer_cast@U?$hand_pos_@V?$allocator@X@std@@@sam_custom_messages@@$$CBU12@@mwboost@@YA?AV?$shared_ptr@U?$hand_pos_@V?$allocator@X@std@@@sam_custom_messages@@@0@$$QEAV?$shared_ptr@$$CBU?$hand_pos_@V?$allocator@X@std@@@sam_custom_messages@@@0@@Z
	??$const_pointer_cast@U?$hand_pos_@V?$allocator@X@std@@@sam_custom_messages@@$$CBU12@@mwboost@@YA?AV?$shared_ptr@U?$hand_pos_@V?$allocator@X@std@@@sam_custom_messages@@@0@AEBV?$shared_ptr@$$CBU?$hand_pos_@V?$allocator@X@std@@@sam_custom_messages@@@0@@Z
	??$const_pointer_cast@U?$object_state_@V?$allocator@X@std@@@sam_custom_messages@@$$CBU12@@mwboost@@YA?AV?$shared_ptr@U?$object_state_@V?$allocator@X@std@@@sam_custom_messages@@@0@$$QEAV?$shared_ptr@$$CBU?$object_state_@V?$allocator@X@std@@@sam_custom_messages@@@0@@Z
	??$const_pointer_cast@U?$object_state_@V?$allocator@X@std@@@sam_custom_messages@@$$CBU12@@mwboost@@YA?AV?$shared_ptr@U?$object_state_@V?$allocator@X@std@@@sam_custom_messages@@@0@AEBV?$shared_ptr@$$CBU?$object_state_@V?$allocator@X@std@@@sam_custom_messages@@@0@@Z
	??$const_pointer_cast@U?$robot_state_@V?$allocator@X@std@@@sam_custom_messages@@$$CBU12@@mwboost@@YA?AV?$shared_ptr@U?$robot_state_@V?$allocator@X@std@@@sam_custom_messages@@@0@$$QEAV?$shared_ptr@$$CBU?$robot_state_@V?$allocator@X@std@@@sam_custom_messages@@@0@@Z
	??$const_pointer_cast@U?$robot_state_@V?$allocator@X@std@@@sam_custom_messages@@$$CBU12@@mwboost@@YA?AV?$shared_ptr@U?$robot_state_@V?$allocator@X@std@@@sam_custom_messages@@@0@AEBV?$shared_ptr@$$CBU?$robot_state_@V?$allocator@X@std@@@sam_custom_messages@@@0@@Z
	??$const_pointer_cast@U?$user_prediction_@V?$allocator@X@std@@@sam_custom_messages@@$$CBU12@@mwboost@@YA?AV?$shared_ptr@U?$user_prediction_@V?$allocator@X@std@@@sam_custom_messages@@@0@$$QEAV?$shared_ptr@$$CBU?$user_prediction_@V?$allocator@X@std@@@sam_custom_messages@@@0@@Z
	??$const_pointer_cast@U?$user_prediction_@V?$allocator@X@std@@@sam_custom_messages@@$$CBU12@@mwboost@@YA?AV?$shared_ptr@U?$user_prediction_@V?$allocator@X@std@@@sam_custom_messages@@@0@AEBV?$shared_ptr@$$CBU?$user_prediction_@V?$allocator@X@std@@@sam_custom_messages@@@0@@Z
	??$const_pointer_cast@X$$CBX@mwboost@@YA?AV?$shared_ptr@X@0@AEBV?$shared_ptr@$$CBX@0@@Z
	??$copy@V?$TypedIterator@$$CBN@data@matlab@@V?$_Vector_iterator@V?$_Vector_val@U?$_Simple_types@N@std@@@std@@@std@@@std@@YA?AV?$_Vector_iterator@V?$_Vector_val@U?$_Simple_types@N@std@@@std@@@0@V?$TypedIterator@$$CBN@data@matlab@@0V10@@Z
	??$copyMessageIfNecessary@$$CBU?$Object_@V?$allocator@X@std@@@sam_custom_messages@@@?$MessageEvent@$$CBU?$Object_@V?$allocator@X@std@@@sam_custom_messages@@@ros@@AEBA?AV?$shared_ptr@$$CBU?$Object_@V?$allocator@X@std@@@sam_custom_messages@@@mwboost@@XZ
	??$copyMessageIfNecessary@$$CBU?$capability_@V?$allocator@X@std@@@sam_custom_messages@@@?$MessageEvent@$$CBU?$capability_@V?$allocator@X@std@@@sam_custom_messages@@@ros@@AEBA?AV?$shared_ptr@$$CBU?$capability_@V?$allocator@X@std@@@sam_custom_messages@@@mwboost@@XZ
	??$copyMessageIfNecessary@$$CBU?$current_action_@V?$allocator@X@std@@@sam_custom_messages@@@?$MessageEvent@$$CBU?$current_action_@V?$allocator@X@std@@@sam_custom_messages@@@ros@@AEBA?AV?$shared_ptr@$$CBU?$current_action_@V?$allocator@X@std@@@sam_custom_messages@@@mwboost@@XZ
	??$copyMessageIfNecessary@$$CBU?$diagnostics_@V?$allocator@X@std@@@sam_custom_messages@@@?$MessageEvent@$$CBU?$diagnostics_@V?$allocator@X@std@@@sam_custom_messages@@@ros@@AEBA?AV?$shared_ptr@$$CBU?$diagnostics_@V?$allocator@X@std@@@sam_custom_messages@@@mwboost@@XZ
	??$copyMessageIfNecessary@$$CBU?$hand_pos_@V?$allocator@X@std@@@sam_custom_messages@@@?$MessageEvent@$$CBU?$hand_pos_@V?$allocator@X@std@@@sam_custom_messages@@@ros@@AEBA?AV?$shared_ptr@$$CBU?$hand_pos_@V?$allocator@X@std@@@sam_custom_messages@@@mwboost@@XZ
	??$copyMessageIfNecessary@$$CBU?$object_state_@V?$allocator@X@std@@@sam_custom_messages@@@?$MessageEvent@$$CBU?$object_state_@V?$allocator@X@std@@@sam_custom_messages@@@ros@@AEBA?AV?$shared_ptr@$$CBU?$object_state_@V?$allocator@X@std@@@sam_custom_messages@@@mwboost@@XZ
	??$copyMessageIfNecessary@$$CBU?$robot_state_@V?$allocator@X@std@@@sam_custom_messages@@@?$MessageEvent@$$CBU?$robot_state_@V?$allocator@X@std@@@sam_custom_messages@@@ros@@AEBA?AV?$shared_ptr@$$CBU?$robot_state_@V?$allocator@X@std@@@sam_custom_messages@@@mwboost@@XZ
	??$copyMessageIfNecessary@$$CBU?$user_prediction_@V?$allocator@X@std@@@sam_custom_messages@@@?$MessageEvent@$$CBU?$user_prediction_@V?$allocator@X@std@@@sam_custom_messages@@@ros@@AEBA?AV?$shared_ptr@$$CBU?$user_prediction_@V?$allocator@X@std@@@sam_custom_messages@@@mwboost@@XZ
	??$copyMessageIfNecessary@$$CBX@?$MessageEvent@$$CBX@ros@@AEBA?AV?$shared_ptr@$$CBX@mwboost@@XZ
	??$createArray@V?$_Vector_const_iterator@V?$_Vector_val@U?$_Simple_types@N@std@@@std@@@std@@N@ArrayFactory@data@matlab@@QEAA?AV?$TypedArray@N@12@V?$vector@_KV?$allocator@_K@std@@@std@@V?$_Vector_const_iterator@V?$_Vector_val@U?$_Simple_types@N@std@@@std@@@5@1@Z
	??$createArray@VArray@data@matlab@@@ArrayFactory@data@matlab@@QEAA?AV?$TypedArray@VArray@data@matlab@@@12@V?$vector@_KV?$allocator@_K@std@@@std@@@Z
	??$createArrayWithIterator@V?$_Vector_const_iterator@V?$_Vector_val@U?$_Simple_types@N@std@@@std@@@std@@N@detail@data@matlab@@YA?AV?$TypedArray@N@12@PEAVArrayFactoryImpl@impl@12@V?$vector@_KV?$allocator@_K@std@@@std@@V?$_Vector_const_iterator@V?$_Vector_val@U?$_Simple_types@N@std@@@std@@@7@2@Z
	??$createObj@V?$ArrayElementTypedRef@VArray@data@matlab@@$00@data@matlab@@VReferenceImpl@detail@23@@Access@detail@data@matlab@@SA?AV?$ArrayElementTypedRef@VArray@data@matlab@@$00@23@V?$shared_ptr@VReferenceImpl@detail@data@matlab@@@std@@@Z
	??$createObj@V?$ArrayElementTypedRef@VArray@data@matlab@@$0A@@data@matlab@@VReferenceImpl@detail@23@@Access@detail@data@matlab@@SA?AV?$ArrayElementTypedRef@VArray@data@matlab@@$0A@@23@V?$shared_ptr@VReferenceImpl@detail@data@matlab@@@std@@@Z
	??$createObj@VStruct@data@matlab@@VReferenceImpl@detail@23@@Access@detail@data@matlab@@SA?AVStruct@23@V?$shared_ptr@VReferenceImpl@detail@data@matlab@@@std@@@Z
	??$createScalar@C@ArrayFactory@data@matlab@@QEAA?AV?$TypedArray@C@12@C@Z
	??$createScalar@I@ArrayFactory@data@matlab@@QEAA?AV?$TypedArray@I@12@I@Z
	??$createScalar@N@ArrayFactory@data@matlab@@QEAA?AV?$TypedArray@N@12@N@Z
	??$createTempRef@N$00@?$TypedIterator@$$CBN@data@matlab@@AEAAPEANV?$shared_ptr@VIteratorImpl@detail@data@matlab@@@std@@@Z
	??$createTempRef@VStruct@data@matlab@@$00@?$TypedIterator@$$CBVStruct@data@matlab@@@data@matlab@@AEAA?AVStruct@12@V?$shared_ptr@VIteratorImpl@detail@data@matlab@@@std@@@Z
	??$emplace_back@AEBU?$KeyValue_@V?$allocator@X@std@@@diagnostic_msgs@@@?$vector@U?$KeyValue_@V?$allocator@X@std@@@diagnostic_msgs@@V?$allocator@U?$KeyValue_@V?$allocator@X@std@@@diagnostic_msgs@@@std@@@std@@QEAAXAEBU?$KeyValue_@V?$allocator@X@std@@@diagnostic_msgs@@@Z
	??$emplace_back@V?$basic_string@DU?$char_traits@D@std@@V?$allocator@D@2@@std@@@?$vector@V?$basic_string@DU?$char_traits@D@std@@V?$allocator@D@2@@std@@V?$allocator@V?$basic_string@DU?$char_traits@D@std@@V?$allocator@D@2@@std@@@2@@std@@QEAAX$$QEAV?$basic_string@DU?$char_traits@D@std@@V?$allocator@D@2@@1@@Z
	??$enable_both@Vbad_function_call@mwboost@@@exception_detail@mwboost@@YA?AU?$wrapexcept@Vbad_function_call@mwboost@@@1@AEBVbad_function_call@1@@Z
	??$enable_both@Vthread_resource_error@mwboost@@@exception_detail@mwboost@@YA?AU?$wrapexcept@Vthread_resource_error@mwboost@@@1@AEBVthread_resource_error@1@@Z
	??$find_if@V?$_String_const_iterator@V?$_String_val@U?$_Simple_types@D@std@@@std@@@std@@V<lambda_9af1022c29514f862ee55749a69d7ee5>@@@std@@YA?AV?$_String_const_iterator@V?$_String_val@U?$_Simple_types@D@std@@@std@@@0@V10@V10@V<lambda_9af1022c29514f862ee55749a69d7ee5>@@@Z
	??$getElement@C@detail@data@matlab@@YAAEACV?$shared_ptr@VReferenceImpl@detail@data@matlab@@@std@@@Z
	??$getElement@I@detail@data@matlab@@YAAEAIV?$shared_ptr@VReferenceImpl@detail@data@matlab@@@std@@@Z
	??$getElement@N@detail@data@matlab@@YAAEANV?$shared_ptr@VReferenceImpl@detail@data@matlab@@@std@@@Z
	??$getFactoryMapForBaseClass@VMATLABPublisherInterface@@@impl@class_loader@@YAAEAV?$map@V?$basic_string@DU?$char_traits@D@std@@V?$allocator@D@2@@std@@PEAVAbstractMetaObjectBase@impl@class_loader@@U?$less@V?$basic_string@DU?$char_traits@D@std@@V?$allocator@D@2@@std@@@2@V?$allocator@U?$pair@$$CBV?$basic_string@DU?$char_traits@D@std@@V?$allocator@D@2@@std@@PEAVAbstractMetaObjectBase@impl@class_loader@@@std@@@2@@std@@XZ
	??$getFactoryMapForBaseClass@VMATLABSubscriberInterface@@@impl@class_loader@@YAAEAV?$map@V?$basic_string@DU?$char_traits@D@std@@V?$allocator@D@2@@std@@PEAVAbstractMetaObjectBase@impl@class_loader@@U?$less@V?$basic_string@DU?$char_traits@D@std@@V?$allocator@D@2@@std@@@2@V?$allocator@U?$pair@$$CBV?$basic_string@DU?$char_traits@D@std@@V?$allocator@D@2@@std@@PEAVAbstractMetaObjectBase@impl@class_loader@@@std@@@2@@std@@XZ
	??$getRef@$$CBVStruct@data@matlab@@@?$TypedIterator@$$CBVStruct@data@matlab@@@data@matlab@@AEBA?AVStruct@12@XZ
	??$get_local_deleter@U?$checked_array_deleter@E@mwboost@@@detail@mwboost@@YAPEAU?$checked_array_deleter@E@1@PEAU21@@Z
	??$get_local_deleter@V?$sp_ms_deleter@U?$Object_@V?$allocator@X@std@@@sam_custom_messages@@@detail@mwboost@@@detail@mwboost@@YAPEAV?$sp_ms_deleter@U?$Object_@V?$allocator@X@std@@@sam_custom_messages@@@01@PEAV201@@Z
	??$get_local_deleter@V?$sp_ms_deleter@U?$capability_@V?$allocator@X@std@@@sam_custom_messages@@@detail@mwboost@@@detail@mwboost@@YAPEAV?$sp_ms_deleter@U?$capability_@V?$allocator@X@std@@@sam_custom_messages@@@01@PEAV201@@Z
	??$get_local_deleter@V?$sp_ms_deleter@U?$current_action_@V?$allocator@X@std@@@sam_custom_messages@@@detail@mwboost@@@detail@mwboost@@YAPEAV?$sp_ms_deleter@U?$current_action_@V?$allocator@X@std@@@sam_custom_messages@@@01@PEAV201@@Z
	??$get_local_deleter@V?$sp_ms_deleter@U?$diagnostics_@V?$allocator@X@std@@@sam_custom_messages@@@detail@mwboost@@@detail@mwboost@@YAPEAV?$sp_ms_deleter@U?$diagnostics_@V?$allocator@X@std@@@sam_custom_messages@@@01@PEAV201@@Z
	??$get_local_deleter@V?$sp_ms_deleter@U?$hand_pos_@V?$allocator@X@std@@@sam_custom_messages@@@detail@mwboost@@@detail@mwboost@@YAPEAV?$sp_ms_deleter@U?$hand_pos_@V?$allocator@X@std@@@sam_custom_messages@@@01@PEAV201@@Z
	??$get_local_deleter@V?$sp_ms_deleter@U?$object_state_@V?$allocator@X@std@@@sam_custom_messages@@@detail@mwboost@@@detail@mwboost@@YAPEAV?$sp_ms_deleter@U?$object_state_@V?$allocator@X@std@@@sam_custom_messages@@@01@PEAV201@@Z
	??$get_local_deleter@V?$sp_ms_deleter@U?$robot_state_@V?$allocator@X@std@@@sam_custom_messages@@@detail@mwboost@@@detail@mwboost@@YAPEAV?$sp_ms_deleter@U?$robot_state_@V?$allocator@X@std@@@sam_custom_messages@@@01@PEAV201@@Z
	??$get_local_deleter@V?$sp_ms_deleter@U?$user_prediction_@V?$allocator@X@std@@@sam_custom_messages@@@detail@mwboost@@@detail@mwboost@@YAPEAV?$sp_ms_deleter@U?$user_prediction_@V?$allocator@X@std@@@sam_custom_messages@@@01@PEAV201@@Z
	??$get_local_deleter@V?$sp_ms_deleter@V?$SubscriptionCallbackHelperT@AEBV?$shared_ptr@$$CBU?$Object_@V?$allocator@X@std@@@sam_custom_messages@@@mwboost@@X@ros@@@detail@mwboost@@@detail@mwboost@@YAPEAV?$sp_ms_deleter@V?$SubscriptionCallbackHelperT@AEBV?$shared_ptr@$$CBU?$Object_@V?$allocator@X@std@@@sam_custom_messages@@@mwboost@@X@ros@@@01@PEAV201@@Z
	??$get_local_deleter@V?$sp_ms_deleter@V?$SubscriptionCallbackHelperT@AEBV?$shared_ptr@$$CBU?$capability_@V?$allocator@X@std@@@sam_custom_messages@@@mwboost@@X@ros@@@detail@mwboost@@@detail@mwboost@@YAPEAV?$sp_ms_deleter@V?$SubscriptionCallbackHelperT@AEBV?$shared_ptr@$$CBU?$capability_@V?$allocator@X@std@@@sam_custom_messages@@@mwboost@@X@ros@@@01@PEAV201@@Z
	??$get_local_deleter@V?$sp_ms_deleter@V?$SubscriptionCallbackHelperT@AEBV?$shared_ptr@$$CBU?$current_action_@V?$allocator@X@std@@@sam_custom_messages@@@mwboost@@X@ros@@@detail@mwboost@@@detail@mwboost@@YAPEAV?$sp_ms_deleter@V?$SubscriptionCallbackHelperT@AEBV?$shared_ptr@$$CBU?$current_action_@V?$allocator@X@std@@@sam_custom_messages@@@mwboost@@X@ros@@@01@PEAV201@@Z
	??$get_local_deleter@V?$sp_ms_deleter@V?$SubscriptionCallbackHelperT@AEBV?$shared_ptr@$$CBU?$diagnostics_@V?$allocator@X@std@@@sam_custom_messages@@@mwboost@@X@ros@@@detail@mwboost@@@detail@mwboost@@YAPEAV?$sp_ms_deleter@V?$SubscriptionCallbackHelperT@AEBV?$shared_ptr@$$CBU?$diagnostics_@V?$allocator@X@std@@@sam_custom_messages@@@mwboost@@X@ros@@@01@PEAV201@@Z
	??$get_local_deleter@V?$sp_ms_deleter@V?$SubscriptionCallbackHelperT@AEBV?$shared_ptr@$$CBU?$hand_pos_@V?$allocator@X@std@@@sam_custom_messages@@@mwboost@@X@ros@@@detail@mwboost@@@detail@mwboost@@YAPEAV?$sp_ms_deleter@V?$SubscriptionCallbackHelperT@AEBV?$shared_ptr@$$CBU?$hand_pos_@V?$allocator@X@std@@@sam_custom_messages@@@mwboost@@X@ros@@@01@PEAV201@@Z
	??$get_local_deleter@V?$sp_ms_deleter@V?$SubscriptionCallbackHelperT@AEBV?$shared_ptr@$$CBU?$object_state_@V?$allocator@X@std@@@sam_custom_messages@@@mwboost@@X@ros@@@detail@mwboost@@@detail@mwboost@@YAPEAV?$sp_ms_deleter@V?$SubscriptionCallbackHelperT@AEBV?$shared_ptr@$$CBU?$object_state_@V?$allocator@X@std@@@sam_custom_messages@@@mwboost@@X@ros@@@01@PEAV201@@Z
	??$get_local_deleter@V?$sp_ms_deleter@V?$SubscriptionCallbackHelperT@AEBV?$shared_ptr@$$CBU?$robot_state_@V?$allocator@X@std@@@sam_custom_messages@@@mwboost@@X@ros@@@detail@mwboost@@@detail@mwboost@@YAPEAV?$sp_ms_deleter@V?$SubscriptionCallbackHelperT@AEBV?$shared_ptr@$$CBU?$robot_state_@V?$allocator@X@std@@@sam_custom_messages@@@mwboost@@X@ros@@@01@PEAV201@@Z
	??$get_local_deleter@V?$sp_ms_deleter@V?$SubscriptionCallbackHelperT@AEBV?$shared_ptr@$$CBU?$user_prediction_@V?$allocator@X@std@@@sam_custom_messages@@@mwboost@@X@ros@@@detail@mwboost@@@detail@mwboost@@YAPEAV?$sp_ms_deleter@V?$SubscriptionCallbackHelperT@AEBV?$shared_ptr@$$CBU?$user_prediction_@V?$allocator@X@std@@@sam_custom_messages@@@mwboost@@X@ros@@@01@PEAV201@@Z
	??$init@U?$Object_@V?$allocator@X@std@@@sam_custom_messages@@@AdvertiseOptions@ros@@QEAAXAEBV?$basic_string@DU?$char_traits@D@std@@V?$allocator@D@2@@std@@IAEBV?$function@$$A6AXAEBVSingleSubscriberPublisher@ros@@@Z@mwboost@@1@Z
	??$init@U?$Object_@V?$allocator@X@std@@@sam_custom_messages@@@SubscribeOptions@ros@@QEAAXAEBV?$basic_string@DU?$char_traits@D@std@@V?$allocator@D@2@@std@@IAEBV?$function@$$A6AXAEBV?$shared_ptr@$$CBU?$Object_@V?$allocator@X@std@@@sam_custom_messages@@@mwboost@@@Z@mwboost@@AEBV?$function@$$A6A?AV?$shared_ptr@U?$Object_@V?$allocator@X@std@@@sam_custom_messages@@@mwboost@@XZ@5@@Z
	??$init@U?$capability_@V?$allocator@X@std@@@sam_custom_messages@@@AdvertiseOptions@ros@@QEAAXAEBV?$basic_string@DU?$char_traits@D@std@@V?$allocator@D@2@@std@@IAEBV?$function@$$A6AXAEBVSingleSubscriberPublisher@ros@@@Z@mwboost@@1@Z
	??$init@U?$capability_@V?$allocator@X@std@@@sam_custom_messages@@@SubscribeOptions@ros@@QEAAXAEBV?$basic_string@DU?$char_traits@D@std@@V?$allocator@D@2@@std@@IAEBV?$function@$$A6AXAEBV?$shared_ptr@$$CBU?$capability_@V?$allocator@X@std@@@sam_custom_messages@@@mwboost@@@Z@mwboost@@AEBV?$function@$$A6A?AV?$shared_ptr@U?$capability_@V?$allocator@X@std@@@sam_custom_messages@@@mwboost@@XZ@5@@Z
	??$init@U?$current_action_@V?$allocator@X@std@@@sam_custom_messages@@@AdvertiseOptions@ros@@QEAAXAEBV?$basic_string@DU?$char_traits@D@std@@V?$allocator@D@2@@std@@IAEBV?$function@$$A6AXAEBVSingleSubscriberPublisher@ros@@@Z@mwboost@@1@Z
	??$init@U?$current_action_@V?$allocator@X@std@@@sam_custom_messages@@@SubscribeOptions@ros@@QEAAXAEBV?$basic_string@DU?$char_traits@D@std@@V?$allocator@D@2@@std@@IAEBV?$function@$$A6AXAEBV?$shared_ptr@$$CBU?$current_action_@V?$allocator@X@std@@@sam_custom_messages@@@mwboost@@@Z@mwboost@@AEBV?$function@$$A6A?AV?$shared_ptr@U?$current_action_@V?$allocator@X@std@@@sam_custom_messages@@@mwboost@@XZ@5@@Z
	??$init@U?$diagnostics_@V?$allocator@X@std@@@sam_custom_messages@@@AdvertiseOptions@ros@@QEAAXAEBV?$basic_string@DU?$char_traits@D@std@@V?$allocator@D@2@@std@@IAEBV?$function@$$A6AXAEBVSingleSubscriberPublisher@ros@@@Z@mwboost@@1@Z
	??$init@U?$diagnostics_@V?$allocator@X@std@@@sam_custom_messages@@@SubscribeOptions@ros@@QEAAXAEBV?$basic_string@DU?$char_traits@D@std@@V?$allocator@D@2@@std@@IAEBV?$function@$$A6AXAEBV?$shared_ptr@$$CBU?$diagnostics_@V?$allocator@X@std@@@sam_custom_messages@@@mwboost@@@Z@mwboost@@AEBV?$function@$$A6A?AV?$shared_ptr@U?$diagnostics_@V?$allocator@X@std@@@sam_custom_messages@@@mwboost@@XZ@5@@Z
	??$init@U?$hand_pos_@V?$allocator@X@std@@@sam_custom_messages@@@AdvertiseOptions@ros@@QEAAXAEBV?$basic_string@DU?$char_traits@D@std@@V?$allocator@D@2@@std@@IAEBV?$function@$$A6AXAEBVSingleSubscriberPublisher@ros@@@Z@mwboost@@1@Z
	??$init@U?$hand_pos_@V?$allocator@X@std@@@sam_custom_messages@@@SubscribeOptions@ros@@QEAAXAEBV?$basic_string@DU?$char_traits@D@std@@V?$allocator@D@2@@std@@IAEBV?$function@$$A6AXAEBV?$shared_ptr@$$CBU?$hand_pos_@V?$allocator@X@std@@@sam_custom_messages@@@mwboost@@@Z@mwboost@@AEBV?$function@$$A6A?AV?$shared_ptr@U?$hand_pos_@V?$allocator@X@std@@@sam_custom_messages@@@mwboost@@XZ@5@@Z
	??$init@U?$object_state_@V?$allocator@X@std@@@sam_custom_messages@@@AdvertiseOptions@ros@@QEAAXAEBV?$basic_string@DU?$char_traits@D@std@@V?$allocator@D@2@@std@@IAEBV?$function@$$A6AXAEBVSingleSubscriberPublisher@ros@@@Z@mwboost@@1@Z
	??$init@U?$object_state_@V?$allocator@X@std@@@sam_custom_messages@@@SubscribeOptions@ros@@QEAAXAEBV?$basic_string@DU?$char_traits@D@std@@V?$allocator@D@2@@std@@IAEBV?$function@$$A6AXAEBV?$shared_ptr@$$CBU?$object_state_@V?$allocator@X@std@@@sam_custom_messages@@@mwboost@@@Z@mwboost@@AEBV?$function@$$A6A?AV?$shared_ptr@U?$object_state_@V?$allocator@X@std@@@sam_custom_messages@@@mwboost@@XZ@5@@Z
	??$init@U?$robot_state_@V?$allocator@X@std@@@sam_custom_messages@@@AdvertiseOptions@ros@@QEAAXAEBV?$basic_string@DU?$char_traits@D@std@@V?$allocator@D@2@@std@@IAEBV?$function@$$A6AXAEBVSingleSubscriberPublisher@ros@@@Z@mwboost@@1@Z
	??$init@U?$robot_state_@V?$allocator@X@std@@@sam_custom_messages@@@SubscribeOptions@ros@@QEAAXAEBV?$basic_string@DU?$char_traits@D@std@@V?$allocator@D@2@@std@@IAEBV?$function@$$A6AXAEBV?$shared_ptr@$$CBU?$robot_state_@V?$allocator@X@std@@@sam_custom_messages@@@mwboost@@@Z@mwboost@@AEBV?$function@$$A6A?AV?$shared_ptr@U?$robot_state_@V?$allocator@X@std@@@sam_custom_messages@@@mwboost@@XZ@5@@Z
	??$init@U?$user_prediction_@V?$allocator@X@std@@@sam_custom_messages@@@AdvertiseOptions@ros@@QEAAXAEBV?$basic_string@DU?$char_traits@D@std@@V?$allocator@D@2@@std@@IAEBV?$function@$$A6AXAEBVSingleSubscriberPublisher@ros@@@Z@mwboost@@1@Z
	??$init@U?$user_prediction_@V?$allocator@X@std@@@sam_custom_messages@@@SubscribeOptions@ros@@QEAAXAEBV?$basic_string@DU?$char_traits@D@std@@V?$allocator@D@2@@std@@IAEBV?$function@$$A6AXAEBV?$shared_ptr@$$CBU?$user_prediction_@V?$allocator@X@std@@@sam_custom_messages@@@mwboost@@@Z@mwboost@@AEBV?$function@$$A6A?AV?$shared_ptr@U?$user_prediction_@V?$allocator@X@std@@@sam_custom_messages@@@mwboost@@XZ@5@@Z
	??$make_shared@U?$Object_@V?$allocator@X@std@@@sam_custom_messages@@$$V@mwboost@@YA?AV?$shared_ptr@U?$Object_@V?$allocator@X@std@@@sam_custom_messages@@@0@XZ
	??$make_shared@U?$capability_@V?$allocator@X@std@@@sam_custom_messages@@$$V@mwboost@@YA?AV?$shared_ptr@U?$capability_@V?$allocator@X@std@@@sam_custom_messages@@@0@XZ
	??$make_shared@U?$current_action_@V?$allocator@X@std@@@sam_custom_messages@@$$V@mwboost@@YA?AV?$shared_ptr@U?$current_action_@V?$allocator@X@std@@@sam_custom_messages@@@0@XZ
	??$make_shared@U?$diagnostics_@V?$allocator@X@std@@@sam_custom_messages@@$$V@mwboost@@YA?AV?$shared_ptr@U?$diagnostics_@V?$allocator@X@std@@@sam_custom_messages@@@0@XZ
	??$make_shared@U?$hand_pos_@V?$allocator@X@std@@@sam_custom_messages@@$$V@mwboost@@YA?AV?$shared_ptr@U?$hand_pos_@V?$allocator@X@std@@@sam_custom_messages@@@0@XZ
	??$make_shared@U?$object_state_@V?$allocator@X@std@@@sam_custom_messages@@$$V@mwboost@@YA?AV?$shared_ptr@U?$object_state_@V?$allocator@X@std@@@sam_custom_messages@@@0@XZ
	??$make_shared@U?$robot_state_@V?$allocator@X@std@@@sam_custom_messages@@$$V@mwboost@@YA?AV?$shared_ptr@U?$robot_state_@V?$allocator@X@std@@@sam_custom_messages@@@0@XZ
	??$make_shared@U?$user_prediction_@V?$allocator@X@std@@@sam_custom_messages@@$$V@mwboost@@YA?AV?$shared_ptr@U?$user_prediction_@V?$allocator@X@std@@@sam_custom_messages@@@0@XZ
	??$make_shared@V?$SubscriptionCallbackHelperT@AEBV?$shared_ptr@$$CBU?$Object_@V?$allocator@X@std@@@sam_custom_messages@@@mwboost@@X@ros@@AEBV?$function@$$A6AXAEBV?$shared_ptr@$$CBU?$Object_@V?$allocator@X@std@@@sam_custom_messages@@@mwboost@@@Z@mwboost@@AEBV?$function@$$A6A?AV?$shared_ptr@U?$Object_@V?$allocator@X@std@@@sam_custom_messages@@@mwboost@@XZ@4@@mwboost@@YA?AV?$shared_ptr@V?$SubscriptionCallbackHelperT@AEBV?$shared_ptr@$$CBU?$Object_@V?$allocator@X@std@@@sam_custom_messages@@@mwboost@@X@ros@@@0@AEBV?$function@$$A6AXAEBV?$shared_ptr@$$CBU?$Object_@V?$allocator@X@std@@@sam_custom_messages@@@mwboost@@@Z@0@AEBV?$function@$$A6A?AV?$shared_ptr@U?$Object_@V?$allocator@X@std@@@sam_custom_messages@@@mwboost@@XZ@0@@Z
	??$make_shared@V?$SubscriptionCallbackHelperT@AEBV?$shared_ptr@$$CBU?$capability_@V?$allocator@X@std@@@sam_custom_messages@@@mwboost@@X@ros@@AEBV?$function@$$A6AXAEBV?$shared_ptr@$$CBU?$capability_@V?$allocator@X@std@@@sam_custom_messages@@@mwboost@@@Z@mwboost@@AEBV?$function@$$A6A?AV?$shared_ptr@U?$capability_@V?$allocator@X@std@@@sam_custom_messages@@@mwboost@@XZ@4@@mwboost@@YA?AV?$shared_ptr@V?$SubscriptionCallbackHelperT@AEBV?$shared_ptr@$$CBU?$capability_@V?$allocator@X@std@@@sam_custom_messages@@@mwboost@@X@ros@@@0@AEBV?$function@$$A6AXAEBV?$shared_ptr@$$CBU?$capability_@V?$allocator@X@std@@@sam_custom_messages@@@mwboost@@@Z@0@AEBV?$function@$$A6A?AV?$shared_ptr@U?$capability_@V?$allocator@X@std@@@sam_custom_messages@@@mwboost@@XZ@0@@Z
	??$make_shared@V?$SubscriptionCallbackHelperT@AEBV?$shared_ptr@$$CBU?$current_action_@V?$allocator@X@std@@@sam_custom_messages@@@mwboost@@X@ros@@AEBV?$function@$$A6AXAEBV?$shared_ptr@$$CBU?$current_action_@V?$allocator@X@std@@@sam_custom_messages@@@mwboost@@@Z@mwboost@@AEBV?$function@$$A6A?AV?$shared_ptr@U?$current_action_@V?$allocator@X@std@@@sam_custom_messages@@@mwboost@@XZ@4@@mwboost@@YA?AV?$shared_ptr@V?$SubscriptionCallbackHelperT@AEBV?$shared_ptr@$$CBU?$current_action_@V?$allocator@X@std@@@sam_custom_messages@@@mwboost@@X@ros@@@0@AEBV?$function@$$A6AXAEBV?$shared_ptr@$$CBU?$current_action_@V?$allocator@X@std@@@sam_custom_messages@@@mwboost@@@Z@0@AEBV?$function@$$A6A?AV?$shared_ptr@U?$current_action_@V?$allocator@X@std@@@sam_custom_messages@@@mwboost@@XZ@0@@Z
	??$make_shared@V?$SubscriptionCallbackHelperT@AEBV?$shared_ptr@$$CBU?$diagnostics_@V?$allocator@X@std@@@sam_custom_messages@@@mwboost@@X@ros@@AEBV?$function@$$A6AXAEBV?$shared_ptr@$$CBU?$diagnostics_@V?$allocator@X@std@@@sam_custom_messages@@@mwboost@@@Z@mwboost@@AEBV?$function@$$A6A?AV?$shared_ptr@U?$diagnostics_@V?$allocator@X@std@@@sam_custom_messages@@@mwboost@@XZ@4@@mwboost@@YA?AV?$shared_ptr@V?$SubscriptionCallbackHelperT@AEBV?$shared_ptr@$$CBU?$diagnostics_@V?$allocator@X@std@@@sam_custom_messages@@@mwboost@@X@ros@@@0@AEBV?$function@$$A6AXAEBV?$shared_ptr@$$CBU?$diagnostics_@V?$allocator@X@std@@@sam_custom_messages@@@mwboost@@@Z@0@AEBV?$function@$$A6A?AV?$shared_ptr@U?$diagnostics_@V?$allocator@X@std@@@sam_custom_messages@@@mwboost@@XZ@0@@Z
	??$make_shared@V?$SubscriptionCallbackHelperT@AEBV?$shared_ptr@$$CBU?$hand_pos_@V?$allocator@X@std@@@sam_custom_messages@@@mwboost@@X@ros@@AEBV?$function@$$A6AXAEBV?$shared_ptr@$$CBU?$hand_pos_@V?$allocator@X@std@@@sam_custom_messages@@@mwboost@@@Z@mwboost@@AEBV?$function@$$A6A?AV?$shared_ptr@U?$hand_pos_@V?$allocator@X@std@@@sam_custom_messages@@@mwboost@@XZ@4@@mwboost@@YA?AV?$shared_ptr@V?$SubscriptionCallbackHelperT@AEBV?$shared_ptr@$$CBU?$hand_pos_@V?$allocator@X@std@@@sam_custom_messages@@@mwboost@@X@ros@@@0@AEBV?$function@$$A6AXAEBV?$shared_ptr@$$CBU?$hand_pos_@V?$allocator@X@std@@@sam_custom_messages@@@mwboost@@@Z@0@AEBV?$function@$$A6A?AV?$shared_ptr@U?$hand_pos_@V?$allocator@X@std@@@sam_custom_messages@@@mwboost@@XZ@0@@Z
	??$make_shared@V?$SubscriptionCallbackHelperT@AEBV?$shared_ptr@$$CBU?$object_state_@V?$allocator@X@std@@@sam_custom_messages@@@mwboost@@X@ros@@AEBV?$function@$$A6AXAEBV?$shared_ptr@$$CBU?$object_state_@V?$allocator@X@std@@@sam_custom_messages@@@mwboost@@@Z@mwboost@@AEBV?$function@$$A6A?AV?$shared_ptr@U?$object_state_@V?$allocator@X@std@@@sam_custom_messages@@@mwboost@@XZ@4@@mwboost@@YA?AV?$shared_ptr@V?$SubscriptionCallbackHelperT@AEBV?$shared_ptr@$$CBU?$object_state_@V?$allocator@X@std@@@sam_custom_messages@@@mwboost@@X@ros@@@0@AEBV?$function@$$A6AXAEBV?$shared_ptr@$$CBU?$object_state_@V?$allocator@X@std@@@sam_custom_messages@@@mwboost@@@Z@0@AEBV?$function@$$A6A?AV?$shared_ptr@U?$object_state_@V?$allocator@X@std@@@sam_custom_messages@@@mwboost@@XZ@0@@Z
	??$make_shared@V?$SubscriptionCallbackHelperT@AEBV?$shared_ptr@$$CBU?$robot_state_@V?$allocator@X@std@@@sam_custom_messages@@@mwboost@@X@ros@@AEBV?$function@$$A6AXAEBV?$shared_ptr@$$CBU?$robot_state_@V?$allocator@X@std@@@sam_custom_messages@@@mwboost@@@Z@mwboost@@AEBV?$function@$$A6A?AV?$shared_ptr@U?$robot_state_@V?$allocator@X@std@@@sam_custom_messages@@@mwboost@@XZ@4@@mwboost@@YA?AV?$shared_ptr@V?$SubscriptionCallbackHelperT@AEBV?$shared_ptr@$$CBU?$robot_state_@V?$allocator@X@std@@@sam_custom_messages@@@mwboost@@X@ros@@@0@AEBV?$function@$$A6AXAEBV?$shared_ptr@$$CBU?$robot_state_@V?$allocator@X@std@@@sam_custom_messages@@@mwboost@@@Z@0@AEBV?$function@$$A6A?AV?$shared_ptr@U?$robot_state_@V?$allocator@X@std@@@sam_custom_messages@@@mwboost@@XZ@0@@Z
	??$make_shared@V?$SubscriptionCallbackHelperT@AEBV?$shared_ptr@$$CBU?$user_prediction_@V?$allocator@X@std@@@sam_custom_messages@@@mwboost@@X@ros@@AEBV?$function@$$A6AXAEBV?$shared_ptr@$$CBU?$user_prediction_@V?$allocator@X@std@@@sam_custom_messages@@@mwboost@@@Z@mwboost@@AEBV?$function@$$A6A?AV?$shared_ptr@U?$user_prediction_@V?$allocator@X@std@@@sam_custom_messages@@@mwboost@@XZ@4@@mwboost@@YA?AV?$shared_ptr@V?$SubscriptionCallbackHelperT@AEBV?$shared_ptr@$$CBU?$user_prediction_@V?$allocator@X@std@@@sam_custom_messages@@@mwboost@@X@ros@@@0@AEBV?$function@$$A6AXAEBV?$shared_ptr@$$CBU?$user_prediction_@V?$allocator@X@std@@@sam_custom_messages@@@mwboost@@@Z@0@AEBV?$function@$$A6A?AV?$shared_ptr@U?$user_prediction_@V?$allocator@X@std@@@sam_custom_messages@@@mwboost@@XZ@0@@Z
	??$make_shared@VPublisher@ros@@V12@@std@@YA?AV?$shared_ptr@VPublisher@ros@@@0@$$QEAVPublisher@ros@@@Z
	??$make_shared@VSubscriber@ros@@V12@@std@@YA?AV?$shared_ptr@VSubscriber@ros@@@0@$$QEAVSubscriber@ros@@@Z
	??$move@AEAV?$TypedArray@_S@data@matlab@@@std@@YA$$QEAV?$TypedArray@_S@data@matlab@@AEAV123@@Z
	??$publish@U?$Object_@V?$allocator@X@std@@@sam_custom_messages@@@Publisher@ros@@QEBAXAEBV?$shared_ptr@U?$Object_@V?$allocator@X@std@@@sam_custom_messages@@@mwboost@@@Z
	??$publish@U?$capability_@V?$allocator@X@std@@@sam_custom_messages@@@Publisher@ros@@QEBAXAEBV?$shared_ptr@U?$capability_@V?$allocator@X@std@@@sam_custom_messages@@@mwboost@@@Z
	??$publish@U?$current_action_@V?$allocator@X@std@@@sam_custom_messages@@@Publisher@ros@@QEBAXAEBV?$shared_ptr@U?$current_action_@V?$allocator@X@std@@@sam_custom_messages@@@mwboost@@@Z
	??$publish@U?$diagnostics_@V?$allocator@X@std@@@sam_custom_messages@@@Publisher@ros@@QEBAXAEBV?$shared_ptr@U?$diagnostics_@V?$allocator@X@std@@@sam_custom_messages@@@mwboost@@@Z
	??$publish@U?$hand_pos_@V?$allocator@X@std@@@sam_custom_messages@@@Publisher@ros@@QEBAXAEBV?$shared_ptr@U?$hand_pos_@V?$allocator@X@std@@@sam_custom_messages@@@mwboost@@@Z
	??$publish@U?$object_state_@V?$allocator@X@std@@@sam_custom_messages@@@Publisher@ros@@QEBAXAEBV?$shared_ptr@U?$object_state_@V?$allocator@X@std@@@sam_custom_messages@@@mwboost@@@Z
	??$publish@U?$robot_state_@V?$allocator@X@std@@@sam_custom_messages@@@Publisher@ros@@QEBAXAEBV?$shared_ptr@U?$robot_state_@V?$allocator@X@std@@@sam_custom_messages@@@mwboost@@@Z
	??$publish@U?$user_prediction_@V?$allocator@X@std@@@sam_custom_messages@@@Publisher@ros@@QEBAXAEBV?$shared_ptr@U?$user_prediction_@V?$allocator@X@std@@@sam_custom_messages@@@mwboost@@@Z
	??$read@UIStream@serialization@ros@@@?$Serializer@C@serialization@ros@@SAXAEAUIStream@12@AEAC@Z
	??$read@UIStream@serialization@ros@@@?$Serializer@I@serialization@ros@@SAXAEAUIStream@12@AEAI@Z
	??$read@UIStream@serialization@ros@@@?$Serializer@N@serialization@ros@@SAXAEAUIStream@12@AEAN@Z
	??$read@UIStream@serialization@ros@@@?$Serializer@V?$basic_string@DU?$char_traits@D@std@@V?$allocator@D@2@@std@@@serialization@ros@@SAXAEAUIStream@12@AEAV?$basic_string@DU?$char_traits@D@std@@V?$allocator@D@2@@std@@@Z
	??$read@UIStream@serialization@ros@@@?$VectorSerializer@NV?$allocator@N@std@@X@serialization@ros@@SAXAEAUIStream@12@AEAV?$vector@NV?$allocator@N@std@@@std@@@Z
	??$read@UIStream@serialization@ros@@@?$VectorSerializer@U?$KeyValue_@V?$allocator@X@std@@@diagnostic_msgs@@V?$allocator@U?$KeyValue_@V?$allocator@X@std@@@diagnostic_msgs@@@std@@X@serialization@ros@@SAXAEAUIStream@12@AEAV?$vector@U?$KeyValue_@V?$allocator@X@std@@@diagnostic_msgs@@V?$allocator@U?$KeyValue_@V?$allocator@X@std@@@diagnostic_msgs@@@std@@@std@@@Z
	??$read@UIStream@serialization@ros@@@?$VectorSerializer@V?$basic_string@DU?$char_traits@D@std@@V?$allocator@D@2@@std@@V?$allocator@V?$basic_string@DU?$char_traits@D@std@@V?$allocator@D@2@@std@@@2@X@serialization@ros@@SAXAEAUIStream@12@AEAV?$vector@V?$basic_string@DU?$char_traits@D@std@@V?$allocator@D@2@@std@@V?$allocator@V?$basic_string@DU?$char_traits@D@std@@V?$allocator@D@2@@std@@@2@@std@@@Z
	??$registerPlugin@Vsam_custom_messages_msg_Object_publisher@@VMATLABPublisherInterface@@@impl@class_loader@@YAXAEBV?$basic_string@DU?$char_traits@D@std@@V?$allocator@D@2@@std@@0@Z
	??$registerPlugin@Vsam_custom_messages_msg_Object_subscriber@@VMATLABSubscriberInterface@@@impl@class_loader@@YAXAEBV?$basic_string@DU?$char_traits@D@std@@V?$allocator@D@2@@std@@0@Z
	??$registerPlugin@Vsam_custom_messages_msg_capability_publisher@@VMATLABPublisherInterface@@@impl@class_loader@@YAXAEBV?$basic_string@DU?$char_traits@D@std@@V?$allocator@D@2@@std@@0@Z
	??$registerPlugin@Vsam_custom_messages_msg_capability_subscriber@@VMATLABSubscriberInterface@@@impl@class_loader@@YAXAEBV?$basic_string@DU?$char_traits@D@std@@V?$allocator@D@2@@std@@0@Z
	??$registerPlugin@Vsam_custom_messages_msg_current_action_publisher@@VMATLABPublisherInterface@@@impl@class_loader@@YAXAEBV?$basic_string@DU?$char_traits@D@std@@V?$allocator@D@2@@std@@0@Z
	??$registerPlugin@Vsam_custom_messages_msg_current_action_subscriber@@VMATLABSubscriberInterface@@@impl@class_loader@@YAXAEBV?$basic_string@DU?$char_traits@D@std@@V?$allocator@D@2@@std@@0@Z
	??$registerPlugin@Vsam_custom_messages_msg_diagnostics_publisher@@VMATLABPublisherInterface@@@impl@class_loader@@YAXAEBV?$basic_string@DU?$char_traits@D@std@@V?$allocator@D@2@@std@@0@Z
	??$registerPlugin@Vsam_custom_messages_msg_diagnostics_subscriber@@VMATLABSubscriberInterface@@@impl@class_loader@@YAXAEBV?$basic_string@DU?$char_traits@D@std@@V?$allocator@D@2@@std@@0@Z
	??$registerPlugin@Vsam_custom_messages_msg_hand_pos_publisher@@VMATLABPublisherInterface@@@impl@class_loader@@YAXAEBV?$basic_string@DU?$char_traits@D@std@@V?$allocator@D@2@@std@@0@Z
	??$registerPlugin@Vsam_custom_messages_msg_hand_pos_subscriber@@VMATLABSubscriberInterface@@@impl@class_loader@@YAXAEBV?$basic_string@DU?$char_traits@D@std@@V?$allocator@D@2@@std@@0@Z
	??$registerPlugin@Vsam_custom_messages_msg_object_state_publisher@@VMATLABPublisherInterface@@@impl@class_loader@@YAXAEBV?$basic_string@DU?$char_traits@D@std@@V?$allocator@D@2@@std@@0@Z
	??$registerPlugin@Vsam_custom_messages_msg_object_state_subscriber@@VMATLABSubscriberInterface@@@impl@class_loader@@YAXAEBV?$basic_string@DU?$char_traits@D@std@@V?$allocator@D@2@@std@@0@Z
	??$registerPlugin@Vsam_custom_messages_msg_robot_state_publisher@@VMATLABPublisherInterface@@@impl@class_loader@@YAXAEBV?$basic_string@DU?$char_traits@D@std@@V?$allocator@D@2@@std@@0@Z
	??$registerPlugin@Vsam_custom_messages_msg_robot_state_subscriber@@VMATLABSubscriberInterface@@@impl@class_loader@@YAXAEBV?$basic_string@DU?$char_traits@D@std@@V?$allocator@D@2@@std@@0@Z
	??$registerPlugin@Vsam_custom_messages_msg_user_prediction_publisher@@VMATLABPublisherInterface@@@impl@class_loader@@YAXAEBV?$basic_string@DU?$char_traits@D@std@@V?$allocator@D@2@@std@@0@Z
	??$registerPlugin@Vsam_custom_messages_msg_user_prediction_subscriber@@VMATLABSubscriberInterface@@@impl@class_loader@@YAXAEBV?$basic_string@DU?$char_traits@D@std@@V?$allocator@D@2@@std@@0@Z
	??$reset@E@?$shared_array@E@mwboost@@QEAAXPEAE@Z
	??$reset@VArrayImpl@impl@data@matlab@@V<lambda_49bc69670bef5877f460780ec06c4b58>@@@?$shared_ptr@VArrayImpl@impl@data@matlab@@@std@@QEAAXPEAVArrayImpl@impl@data@matlab@@V<lambda_49bc69670bef5877f460780ec06c4b58>@@@Z
	??$reset@VArrayImpl@impl@data@matlab@@V<lambda_8717c4bee2934487c85bc1f9f4a10ac1>@@@?$shared_ptr@VArrayImpl@impl@data@matlab@@@std@@QEAAXPEAVArrayImpl@impl@data@matlab@@V<lambda_8717c4bee2934487c85bc1f9f4a10ac1>@@@Z
	??$resolveFunction@P6AHHHPEA_N@Z@detail@data@matlab@@YAP6AHHHPEA_N@ZW4FunctionType@012@@Z
	??$resolveFunction@P6AHPEAPEAVArrayFactoryImpl@impl@data@matlab@@@Z@detail@data@matlab@@YAP6AHPEAPEAVArrayFactoryImpl@impl@12@@ZW4FunctionType@012@@Z
	??$resolveFunction@P6AHPEAVArrayFactoryImpl@impl@data@matlab@@HPEA_K_KPEAPEAVArrayImpl@234@@Z@detail@data@matlab@@YAP6AHPEAVArrayFactoryImpl@impl@12@HPEA_K_KPEAPEAVArrayImpl@412@@ZW4FunctionType@012@@Z
	??$resolveFunction@P6AHPEAVArrayFactoryImpl@impl@data@matlab@@HPEA_K_KQEBX2PEAPEAVArrayImpl@234@@Z@detail@data@matlab@@YAP6AHPEAVArrayFactoryImpl@impl@12@HPEA_K_KQEBX2PEAPEAVArrayImpl@412@@ZW4FunctionType@012@@Z
	??$resolveFunction@P6AHPEAVArrayFactoryImpl@impl@data@matlab@@HPEBXPEAPEAVArrayImpl@234@@Z@detail@data@matlab@@YAP6AHPEAVArrayFactoryImpl@impl@12@HPEBXPEAPEAVArrayImpl@412@@ZW4FunctionType@012@@Z
	??$resolveFunction@P6AHPEAVArrayFactoryImpl@impl@data@matlab@@PEA_K_KPEAVNameListImpl@detail@34@PEAPEAVArrayImpl@234@@Z@detail@data@matlab@@YAP6AHPEAVArrayFactoryImpl@impl@12@PEA_K_KPEAVNameListImpl@012@PEAPEAVArrayImpl@412@@ZW4FunctionType@012@@Z
	??$resolveFunction@P6AHPEAVArrayFactoryImpl@impl@data@matlab@@PEBD_KPEAPEAVArrayImpl@234@@Z@detail@data@matlab@@YAP6AHPEAVArrayFactoryImpl@impl@12@PEBD_KPEAPEAVArrayImpl@412@@ZW4FunctionType@012@@Z
	??$resolveFunction@P6AHPEAVArrayImpl@impl@data@matlab@@PEAH@Z@detail@data@matlab@@YAP6AHPEAVArrayImpl@impl@12@PEAH@ZW4FunctionType@012@@Z
	??$resolveFunction@P6AHPEAVArrayImpl@impl@data@matlab@@PEAPEB_SPEA_K@Z@detail@data@matlab@@YAP6AHPEAVArrayImpl@impl@12@PEAPEB_SPEA_K@ZW4FunctionType@012@@Z
	??$resolveFunction@P6AHPEAVArrayImpl@impl@data@matlab@@_KPEAPEAVReferenceImpl@detail@34@@Z@detail@data@matlab@@YAP6AHPEAVArrayImpl@impl@12@_KPEAPEAVReferenceImpl@012@@ZW4FunctionType@012@@Z
	??$resolveFunction@P6AHPEAVReferenceImpl@detail@data@matlab@@H_N@Z@detail@data@matlab@@YAP6AHPEAVReferenceImpl@012@H_N@ZW4FunctionType@012@@Z
	??$resolveFunction@P6AHPEAVReferenceImpl@detail@data@matlab@@PEAPEAX@Z@detail@data@matlab@@YAP6AHPEAVReferenceImpl@012@PEAPEAX@ZW4FunctionType@012@@Z
	??$resolveFunction@P6AHPEAVReferenceImpl@detail@data@matlab@@PEAVArrayImpl@impl@34@@Z@detail@data@matlab@@YAP6AHPEAVReferenceImpl@012@PEAVArrayImpl@impl@12@@ZW4FunctionType@012@@Z
	??$resolveFunction@P6AHPEAVReferenceImpl@detail@data@matlab@@PEBD_K@Z@detail@data@matlab@@YAP6AHPEAVReferenceImpl@012@PEBD_K@ZW4FunctionType@012@@Z
	??$resolveFunction@P6AHPEAVReferenceImpl@detail@data@matlab@@PEBD_KPEAPEAVArrayImpl@impl@34@@Z@detail@data@matlab@@YAP6AHPEAVReferenceImpl@012@PEBD_KPEAPEAVArrayImpl@impl@12@@ZW4FunctionType@012@@Z
	??$resolveFunction@P6APEAVIteratorImpl@detail@data@matlab@@PEAV1234@@Z@detail@data@matlab@@YAP6APEAVIteratorImpl@012@PEAV3012@@ZW4FunctionType@012@@Z
	??$resolveFunction@P6APEAVIteratorImpl@detail@data@matlab@@PEAVArrayImpl@impl@34@_N@Z@detail@data@matlab@@YAP6APEAVIteratorImpl@012@PEAVArrayImpl@impl@12@_N@ZW4FunctionType@012@@Z
	??$resolveFunction@P6APEAVNameListImpl@detail@data@matlab@@_K@Z@detail@data@matlab@@YAP6APEAVNameListImpl@012@_K@ZW4FunctionType@012@@Z
	??$resolveFunction@P6AXPEAVArrayFactoryImpl@impl@data@matlab@@@Z@detail@data@matlab@@YAP6AXPEAVArrayFactoryImpl@impl@12@@ZW4FunctionType@012@@Z
	??$resolveFunction@P6AXPEAVArrayImpl@impl@data@matlab@@@Z@detail@data@matlab@@YAP6AXPEAVArrayImpl@impl@12@@ZW4FunctionType@012@@Z
	??$resolveFunction@P6AXPEAVIteratorImpl@detail@data@matlab@@@Z@detail@data@matlab@@YAP6AXPEAVIteratorImpl@012@@ZW4FunctionType@012@@Z
	??$resolveFunction@P6AXPEAVIteratorImpl@detail@data@matlab@@PEAPEAVReferenceImpl@234@@Z@detail@data@matlab@@YAP6AXPEAVIteratorImpl@012@PEAPEAVReferenceImpl@012@@ZW4FunctionType@012@@Z
	??$resolveFunction@P6AXPEAVIteratorImpl@detail@data@matlab@@PEAPEAX@Z@detail@data@matlab@@YAP6AXPEAVIteratorImpl@012@PEAPEAX@ZW4FunctionType@012@@Z
	??$resolveFunction@P6AXPEAVNameListImpl@detail@data@matlab@@@Z@detail@data@matlab@@YAP6AXPEAVNameListImpl@012@@ZW4FunctionType@012@@Z
	??$resolveFunction@P6AXPEAVNameListImpl@detail@data@matlab@@PEBD_K@Z@detail@data@matlab@@YAP6AXPEAVNameListImpl@012@PEBD_K@ZW4FunctionType@012@@Z
	??$resolveFunction@P6AXPEAVReferenceImpl@detail@data@matlab@@@Z@detail@data@matlab@@YAP6AXPEAVReferenceImpl@012@@ZW4FunctionType@012@@Z
	??$resolveFunction@P6AXPEAVReferenceImpl@detail@data@matlab@@PEAPEAVArrayImpl@impl@34@@Z@detail@data@matlab@@YAP6AXPEAVReferenceImpl@012@PEAPEAVArrayImpl@impl@12@@ZW4FunctionType@012@@Z
	??$resolveFunction@P6A_KPEAVArrayImpl@impl@data@matlab@@@Z@detail@data@matlab@@YAP6A_KPEAVArrayImpl@impl@12@@ZW4FunctionType@012@@Z
	??$resolveFunction@P6A_NPEAVArrayImpl@impl@data@matlab@@_NPEAPEAV1234@@Z@detail@data@matlab@@YAP6A_NPEAVArrayImpl@impl@12@_NPEAPEAV3412@@ZW4FunctionType@012@@Z
	??$resolveFunction@P6A_NPEAVIteratorImpl@detail@data@matlab@@0@Z@detail@data@matlab@@YAP6A_NPEAVIteratorImpl@012@0@ZW4FunctionType@012@@Z
	??$resolveFunctionNoExcept@P6APEAVIteratorImpl@detail@data@matlab@@PEAVArrayImpl@impl@34@_N@Z@detail@data@matlab@@YAP6APEAVIteratorImpl@012@PEAVArrayImpl@impl@12@_N@ZW4FunctionType@012@@Z
	??$serializeMessage@U?$Object_@V?$allocator@X@std@@@sam_custom_messages@@@serialization@ros@@YA?AVSerializedMessage@1@AEBU?$Object_@V?$allocator@X@std@@@sam_custom_messages@@@Z
	??$serializeMessage@U?$capability_@V?$allocator@X@std@@@sam_custom_messages@@@serialization@ros@@YA?AVSerializedMessage@1@AEBU?$capability_@V?$allocator@X@std@@@sam_custom_messages@@@Z
	??$serializeMessage@U?$current_action_@V?$allocator@X@std@@@sam_custom_messages@@@serialization@ros@@YA?AVSerializedMessage@1@AEBU?$current_action_@V?$allocator@X@std@@@sam_custom_messages@@@Z
	??$serializeMessage@U?$diagnostics_@V?$allocator@X@std@@@sam_custom_messages@@@serialization@ros@@YA?AVSerializedMessage@1@AEBU?$diagnostics_@V?$allocator@X@std@@@sam_custom_messages@@@Z
	??$serializeMessage@U?$hand_pos_@V?$allocator@X@std@@@sam_custom_messages@@@serialization@ros@@YA?AVSerializedMessage@1@AEBU?$hand_pos_@V?$allocator@X@std@@@sam_custom_messages@@@Z
	??$serializeMessage@U?$object_state_@V?$allocator@X@std@@@sam_custom_messages@@@serialization@ros@@YA?AVSerializedMessage@1@AEBU?$object_state_@V?$allocator@X@std@@@sam_custom_messages@@@Z
	??$serializeMessage@U?$robot_state_@V?$allocator@X@std@@@sam_custom_messages@@@serialization@ros@@YA?AVSerializedMessage@1@AEBU?$robot_state_@V?$allocator@X@std@@@sam_custom_messages@@@Z
	??$serializeMessage@U?$user_prediction_@V?$allocator@X@std@@@sam_custom_messages@@@serialization@ros@@YA?AVSerializedMessage@1@AEBU?$user_prediction_@V?$allocator@X@std@@@sam_custom_messages@@@Z
	??$serializedLength@U?$Point_@V?$allocator@X@std@@@geometry_msgs@@@?$Serializer@U?$Point_@V?$allocator@X@std@@@geometry_msgs@@@serialization@ros@@SAIAEBU?$Point_@V?$allocator@X@std@@@geometry_msgs@@@Z
	??$setElement@VArray@data@matlab@@@detail@data@matlab@@YAXPEAVReferenceImpl@012@VArray@12@H@Z
	??$sp_forward@AEBV?$function@$$A6A?AV?$shared_ptr@U?$Object_@V?$allocator@X@std@@@sam_custom_messages@@@mwboost@@XZ@mwboost@@@detail@mwboost@@YAAEBV?$function@$$A6A?AV?$shared_ptr@U?$Object_@V?$allocator@X@std@@@sam_custom_messages@@@mwboost@@XZ@1@AEBV21@@Z
	??$sp_forward@AEBV?$function@$$A6A?AV?$shared_ptr@U?$capability_@V?$allocator@X@std@@@sam_custom_messages@@@mwboost@@XZ@mwboost@@@detail@mwboost@@YAAEBV?$function@$$A6A?AV?$shared_ptr@U?$capability_@V?$allocator@X@std@@@sam_custom_messages@@@mwboost@@XZ@1@AEBV21@@Z
	??$sp_forward@AEBV?$function@$$A6A?AV?$shared_ptr@U?$current_action_@V?$allocator@X@std@@@sam_custom_messages@@@mwboost@@XZ@mwboost@@@detail@mwboost@@YAAEBV?$function@$$A6A?AV?$shared_ptr@U?$current_action_@V?$allocator@X@std@@@sam_custom_messages@@@mwboost@@XZ@1@AEBV21@@Z
	??$sp_forward@AEBV?$function@$$A6A?AV?$shared_ptr@U?$diagnostics_@V?$allocator@X@std@@@sam_custom_messages@@@mwboost@@XZ@mwboost@@@detail@mwboost@@YAAEBV?$function@$$A6A?AV?$shared_ptr@U?$diagnostics_@V?$allocator@X@std@@@sam_custom_messages@@@mwboost@@XZ@1@AEBV21@@Z
	??$sp_forward@AEBV?$function@$$A6A?AV?$shared_ptr@U?$hand_pos_@V?$allocator@X@std@@@sam_custom_messages@@@mwboost@@XZ@mwboost@@@detail@mwboost@@YAAEBV?$function@$$A6A?AV?$shared_ptr@U?$hand_pos_@V?$allocator@X@std@@@sam_custom_messages@@@mwboost@@XZ@1@AEBV21@@Z
	??$sp_forward@AEBV?$function@$$A6A?AV?$shared_ptr@U?$object_state_@V?$allocator@X@std@@@sam_custom_messages@@@mwboost@@XZ@mwboost@@@detail@mwboost@@YAAEBV?$function@$$A6A?AV?$shared_ptr@U?$object_state_@V?$allocator@X@std@@@sam_custom_messages@@@mwboost@@XZ@1@AEBV21@@Z
	??$sp_forward@AEBV?$function@$$A6A?AV?$shared_ptr@U?$robot_state_@V?$allocator@X@std@@@sam_custom_messages@@@mwboost@@XZ@mwboost@@@detail@mwboost@@YAAEBV?$function@$$A6A?AV?$shared_ptr@U?$robot_state_@V?$allocator@X@std@@@sam_custom_messages@@@mwboost@@XZ@1@AEBV21@@Z
	??$sp_forward@AEBV?$function@$$A6A?AV?$shared_ptr@U?$user_prediction_@V?$allocator@X@std@@@sam_custom_messages@@@mwboost@@XZ@mwboost@@@detail@mwboost@@YAAEBV?$function@$$A6A?AV?$shared_ptr@U?$user_prediction_@V?$allocator@X@std@@@sam_custom_messages@@@mwboost@@XZ@1@AEBV21@@Z
	??$sp_forward@AEBV?$function@$$A6AXAEBV?$shared_ptr@$$CBU?$Object_@V?$allocator@X@std@@@sam_custom_messages@@@mwboost@@@Z@mwboost@@@detail@mwboost@@YAAEBV?$function@$$A6AXAEBV?$shared_ptr@$$CBU?$Object_@V?$allocator@X@std@@@sam_custom_messages@@@mwboost@@@Z@1@AEBV21@@Z
	??$sp_forward@AEBV?$function@$$A6AXAEBV?$shared_ptr@$$CBU?$capability_@V?$allocator@X@std@@@sam_custom_messages@@@mwboost@@@Z@mwboost@@@detail@mwboost@@YAAEBV?$function@$$A6AXAEBV?$shared_ptr@$$CBU?$capability_@V?$allocator@X@std@@@sam_custom_messages@@@mwboost@@@Z@1@AEBV21@@Z
	??$sp_forward@AEBV?$function@$$A6AXAEBV?$shared_ptr@$$CBU?$current_action_@V?$allocator@X@std@@@sam_custom_messages@@@mwboost@@@Z@mwboost@@@detail@mwboost@@YAAEBV?$function@$$A6AXAEBV?$shared_ptr@$$CBU?$current_action_@V?$allocator@X@std@@@sam_custom_messages@@@mwboost@@@Z@1@AEBV21@@Z
	??$sp_forward@AEBV?$function@$$A6AXAEBV?$shared_ptr@$$CBU?$diagnostics_@V?$allocator@X@std@@@sam_custom_messages@@@mwboost@@@Z@mwboost@@@detail@mwboost@@YAAEBV?$function@$$A6AXAEBV?$shared_ptr@$$CBU?$diagnostics_@V?$allocator@X@std@@@sam_custom_messages@@@mwboost@@@Z@1@AEBV21@@Z
	??$sp_forward@AEBV?$function@$$A6AXAEBV?$shared_ptr@$$CBU?$hand_pos_@V?$allocator@X@std@@@sam_custom_messages@@@mwboost@@@Z@mwboost@@@detail@mwboost@@YAAEBV?$function@$$A6AXAEBV?$shared_ptr@$$CBU?$hand_pos_@V?$allocator@X@std@@@sam_custom_messages@@@mwboost@@@Z@1@AEBV21@@Z
	??$sp_forward@AEBV?$function@$$A6AXAEBV?$shared_ptr@$$CBU?$object_state_@V?$allocator@X@std@@@sam_custom_messages@@@mwboost@@@Z@mwboost@@@detail@mwboost@@YAAEBV?$function@$$A6AXAEBV?$shared_ptr@$$CBU?$object_state_@V?$allocator@X@std@@@sam_custom_messages@@@mwboost@@@Z@1@AEBV21@@Z
	??$sp_forward@AEBV?$function@$$A6AXAEBV?$shared_ptr@$$CBU?$robot_state_@V?$allocator@X@std@@@sam_custom_messages@@@mwboost@@@Z@mwboost@@@detail@mwboost@@YAAEBV?$function@$$A6AXAEBV?$shared_ptr@$$CBU?$robot_state_@V?$allocator@X@std@@@sam_custom_messages@@@mwboost@@@Z@1@AEBV21@@Z
	??$sp_forward@AEBV?$function@$$A6AXAEBV?$shared_ptr@$$CBU?$user_prediction_@V?$allocator@X@std@@@sam_custom_messages@@@mwboost@@@Z@mwboost@@@detail@mwboost@@YAAEBV?$function@$$A6AXAEBV?$shared_ptr@$$CBU?$user_prediction_@V?$allocator@X@std@@@sam_custom_messages@@@mwboost@@@Z@1@AEBV21@@Z
	??$static_pointer_cast@$$CBU?$Object_@V?$allocator@X@std@@@sam_custom_messages@@$$CBX@mwboost@@YA?AV?$shared_ptr@$$CBU?$Object_@V?$allocator@X@std@@@sam_custom_messages@@@0@$$QEAV?$shared_ptr@$$CBX@0@@Z
	??$static_pointer_cast@$$CBU?$capability_@V?$allocator@X@std@@@sam_custom_messages@@$$CBX@mwboost@@YA?AV?$shared_ptr@$$CBU?$capability_@V?$allocator@X@std@@@sam_custom_messages@@@0@$$QEAV?$shared_ptr@$$CBX@0@@Z
	??$static_pointer_cast@$$CBU?$current_action_@V?$allocator@X@std@@@sam_custom_messages@@$$CBX@mwboost@@YA?AV?$shared_ptr@$$CBU?$current_action_@V?$allocator@X@std@@@sam_custom_messages@@@0@$$QEAV?$shared_ptr@$$CBX@0@@Z
	??$static_pointer_cast@$$CBU?$diagnostics_@V?$allocator@X@std@@@sam_custom_messages@@$$CBX@mwboost@@YA?AV?$shared_ptr@$$CBU?$diagnostics_@V?$allocator@X@std@@@sam_custom_messages@@@0@$$QEAV?$shared_ptr@$$CBX@0@@Z
	??$static_pointer_cast@$$CBU?$hand_pos_@V?$allocator@X@std@@@sam_custom_messages@@$$CBX@mwboost@@YA?AV?$shared_ptr@$$CBU?$hand_pos_@V?$allocator@X@std@@@sam_custom_messages@@@0@$$QEAV?$shared_ptr@$$CBX@0@@Z
	??$static_pointer_cast@$$CBU?$object_state_@V?$allocator@X@std@@@sam_custom_messages@@$$CBX@mwboost@@YA?AV?$shared_ptr@$$CBU?$object_state_@V?$allocator@X@std@@@sam_custom_messages@@@0@$$QEAV?$shared_ptr@$$CBX@0@@Z
	??$static_pointer_cast@$$CBU?$robot_state_@V?$allocator@X@std@@@sam_custom_messages@@$$CBX@mwboost@@YA?AV?$shared_ptr@$$CBU?$robot_state_@V?$allocator@X@std@@@sam_custom_messages@@@0@$$QEAV?$shared_ptr@$$CBX@0@@Z
	??$static_pointer_cast@$$CBU?$user_prediction_@V?$allocator@X@std@@@sam_custom_messages@@$$CBX@mwboost@@YA?AV?$shared_ptr@$$CBU?$user_prediction_@V?$allocator@X@std@@@sam_custom_messages@@@0@$$QEAV?$shared_ptr@$$CBX@0@@Z
	??$subscribe@U?$Object_@V?$allocator@X@std@@@sam_custom_messages@@Vsam_custom_messages_msg_Object_subscriber@@@NodeHandle@ros@@QEAA?AVSubscriber@1@AEBV?$basic_string@DU?$char_traits@D@std@@V?$allocator@D@2@@std@@IP8sam_custom_messages_msg_Object_subscriber@@EAAXAEBV?$shared_ptr@$$CBU?$Object_@V?$allocator@X@std@@@sam_custom_messages@@@mwboost@@@ZPEAV5@AEBVTransportHints@1@@Z
	??$subscribe@U?$capability_@V?$allocator@X@std@@@sam_custom_messages@@Vsam_custom_messages_msg_capability_subscriber@@@NodeHandle@ros@@QEAA?AVSubscriber@1@AEBV?$basic_string@DU?$char_traits@D@std@@V?$allocator@D@2@@std@@IP8sam_custom_messages_msg_capability_subscriber@@EAAXAEBV?$shared_ptr@$$CBU?$capability_@V?$allocator@X@std@@@sam_custom_messages@@@mwboost@@@ZPEAV5@AEBVTransportHints@1@@Z
	??$subscribe@U?$current_action_@V?$allocator@X@std@@@sam_custom_messages@@Vsam_custom_messages_msg_current_action_subscriber@@@NodeHandle@ros@@QEAA?AVSubscriber@1@AEBV?$basic_string@DU?$char_traits@D@std@@V?$allocator@D@2@@std@@IP8sam_custom_messages_msg_current_action_subscriber@@EAAXAEBV?$shared_ptr@$$CBU?$current_action_@V?$allocator@X@std@@@sam_custom_messages@@@mwboost@@@ZPEAV5@AEBVTransportHints@1@@Z
	??$subscribe@U?$diagnostics_@V?$allocator@X@std@@@sam_custom_messages@@Vsam_custom_messages_msg_diagnostics_subscriber@@@NodeHandle@ros@@QEAA?AVSubscriber@1@AEBV?$basic_string@DU?$char_traits@D@std@@V?$allocator@D@2@@std@@IP8sam_custom_messages_msg_diagnostics_subscriber@@EAAXAEBV?$shared_ptr@$$CBU?$diagnostics_@V?$allocator@X@std@@@sam_custom_messages@@@mwboost@@@ZPEAV5@AEBVTransportHints@1@@Z
	??$subscribe@U?$hand_pos_@V?$allocator@X@std@@@sam_custom_messages@@Vsam_custom_messages_msg_hand_pos_subscriber@@@NodeHandle@ros@@QEAA?AVSubscriber@1@AEBV?$basic_string@DU?$char_traits@D@std@@V?$allocator@D@2@@std@@IP8sam_custom_messages_msg_hand_pos_subscriber@@EAAXAEBV?$shared_ptr@$$CBU?$hand_pos_@V?$allocator@X@std@@@sam_custom_messages@@@mwboost@@@ZPEAV5@AEBVTransportHints@1@@Z
	??$subscribe@U?$object_state_@V?$allocator@X@std@@@sam_custom_messages@@Vsam_custom_messages_msg_object_state_subscriber@@@NodeHandle@ros@@QEAA?AVSubscriber@1@AEBV?$basic_string@DU?$char_traits@D@std@@V?$allocator@D@2@@std@@IP8sam_custom_messages_msg_object_state_subscriber@@EAAXAEBV?$shared_ptr@$$CBU?$object_state_@V?$allocator@X@std@@@sam_custom_messages@@@mwboost@@@ZPEAV5@AEBVTransportHints@1@@Z
	??$subscribe@U?$robot_state_@V?$allocator@X@std@@@sam_custom_messages@@Vsam_custom_messages_msg_robot_state_subscriber@@@NodeHandle@ros@@QEAA?AVSubscriber@1@AEBV?$basic_string@DU?$char_traits@D@std@@V?$allocator@D@2@@std@@IP8sam_custom_messages_msg_robot_state_subscriber@@EAAXAEBV?$shared_ptr@$$CBU?$robot_state_@V?$allocator@X@std@@@sam_custom_messages@@@mwboost@@@ZPEAV5@AEBVTransportHints@1@@Z
	??$subscribe@U?$user_prediction_@V?$allocator@X@std@@@sam_custom_messages@@Vsam_custom_messages_msg_user_prediction_subscriber@@@NodeHandle@ros@@QEAA?AVSubscriber@1@AEBV?$basic_string@DU?$char_traits@D@std@@V?$allocator@D@2@@std@@IP8sam_custom_messages_msg_user_prediction_subscriber@@EAAXAEBV?$shared_ptr@$$CBU?$user_prediction_@V?$allocator@X@std@@@sam_custom_messages@@@mwboost@@@ZPEAV5@AEBVTransportHints@1@@Z
	??$throw_exception@Vbad_function_call@mwboost@@@mwboost@@YAXAEBVbad_function_call@0@@Z
	??$throw_exception@Vthread_resource_error@mwboost@@@mwboost@@YAXAEBVthread_resource_error@0@@Z
	??$write@UOStream@serialization@ros@@@?$Serializer@C@serialization@ros@@SAXAEAUOStream@12@C@Z
	??$write@UOStream@serialization@ros@@@?$Serializer@I@serialization@ros@@SAXAEAUOStream@12@I@Z
	??$write@UOStream@serialization@ros@@@?$Serializer@N@serialization@ros@@SAXAEAUOStream@12@N@Z
	??$write@UOStream@serialization@ros@@@?$Serializer@V?$basic_string@DU?$char_traits@D@std@@V?$allocator@D@2@@std@@@serialization@ros@@SAXAEAUOStream@12@AEBV?$basic_string@DU?$char_traits@D@std@@V?$allocator@D@2@@std@@@Z
	??$write@UOStream@serialization@ros@@@?$VectorSerializer@NV?$allocator@N@std@@X@serialization@ros@@SAXAEAUOStream@12@AEBV?$vector@NV?$allocator@N@std@@@std@@@Z
	??$write@UOStream@serialization@ros@@@?$VectorSerializer@U?$KeyValue_@V?$allocator@X@std@@@diagnostic_msgs@@V?$allocator@U?$KeyValue_@V?$allocator@X@std@@@diagnostic_msgs@@@std@@X@serialization@ros@@SAXAEAUOStream@12@AEBV?$vector@U?$KeyValue_@V?$allocator@X@std@@@diagnostic_msgs@@V?$allocator@U?$KeyValue_@V?$allocator@X@std@@@diagnostic_msgs@@@std@@@std@@@Z
	??$write@UOStream@serialization@ros@@@?$VectorSerializer@V?$basic_string@DU?$char_traits@D@std@@V?$allocator@D@2@@std@@V?$allocator@V?$basic_string@DU?$char_traits@D@std@@V?$allocator@D@2@@std@@@2@X@serialization@ros@@SAXAEAUOStream@12@AEBV?$vector@V?$basic_string@DU?$char_traits@D@std@@V?$allocator@D@2@@std@@V?$allocator@V?$basic_string@DU?$char_traits@D@std@@V?$allocator@D@2@@std@@@2@@std@@@Z
	??0?$AbstractMetaObject@VMATLABPublisherInterface@@@impl@class_loader@@QEAA@AEBV?$basic_string@DU?$char_traits@D@std@@V?$allocator@D@2@@std@@0@Z
	??0?$AbstractMetaObject@VMATLABSubscriberInterface@@@impl@class_loader@@QEAA@AEBV?$basic_string@DU?$char_traits@D@std@@V?$allocator@D@2@@std@@0@Z
	??0?$ArrayElementTypedRef@VArray@data@matlab@@$00@data@matlab@@AEAA@V?$shared_ptr@VReferenceImpl@detail@data@matlab@@@std@@@Z
	??0?$ArrayElementTypedRef@VArray@data@matlab@@$0A@@data@matlab@@AEAA@V?$shared_ptr@VReferenceImpl@detail@data@matlab@@@std@@@Z
	??0?$ArrayException@VException@matlab@@$00@detail@data@matlab@@QEAA@AEBV0123@@Z
	??0?$ArrayException@VException@matlab@@$00@detail@data@matlab@@QEAA@V?$basic_string@DU?$char_traits@D@std@@V?$allocator@D@2@@std@@@Z
	??0?$ArrayException@VException@matlab@@$01@detail@data@matlab@@QEAA@AEBV0123@@Z
	??0?$ArrayException@VException@matlab@@$01@detail@data@matlab@@QEAA@V?$basic_string@DU?$char_traits@D@std@@V?$allocator@D@2@@std@@@Z
	??0?$ArrayException@VException@matlab@@$02@detail@data@matlab@@QEAA@AEBV0123@@Z
	??0?$ArrayException@VException@matlab@@$02@detail@data@matlab@@QEAA@V?$basic_string@DU?$char_traits@D@std@@V?$allocator@D@2@@std@@@Z
	??0?$ArrayException@VException@matlab@@$04@detail@data@matlab@@QEAA@AEBV0123@@Z
	??0?$ArrayException@VException@matlab@@$04@detail@data@matlab@@QEAA@V?$basic_string@DU?$char_traits@D@std@@V?$allocator@D@2@@std@@@Z
	??0?$ArrayException@VException@matlab@@$05@detail@data@matlab@@QEAA@AEBV0123@@Z
	??0?$ArrayException@VException@matlab@@$05@detail@data@matlab@@QEAA@V?$basic_string@DU?$char_traits@D@std@@V?$allocator@D@2@@std@@@Z
	??0?$ArrayException@VException@matlab@@$06@detail@data@matlab@@QEAA@AEBV0123@@Z
	??0?$ArrayException@VException@matlab@@$06@detail@data@matlab@@QEAA@V?$basic_string@DU?$char_traits@D@std@@V?$allocator@D@2@@std@@@Z
	??0?$ArrayException@VException@matlab@@$07@detail@data@matlab@@QEAA@AEBV0123@@Z
	??0?$ArrayException@VException@matlab@@$07@detail@data@matlab@@QEAA@V?$basic_string@DU?$char_traits@D@std@@V?$allocator@D@2@@std@@@Z
	??0?$ArrayException@VException@matlab@@$08@detail@data@matlab@@QEAA@AEBV0123@@Z
	??0?$ArrayException@VException@matlab@@$08@detail@data@matlab@@QEAA@V?$basic_string@DU?$char_traits@D@std@@V?$allocator@D@2@@std@@@Z
	??0?$ArrayException@VException@matlab@@$09@detail@data@matlab@@QEAA@AEBV0123@@Z
	??0?$ArrayException@VException@matlab@@$09@detail@data@matlab@@QEAA@V?$basic_string@DU?$char_traits@D@std@@V?$allocator@D@2@@std@@@Z
	??0?$ArrayException@VException@matlab@@$0BA@@detail@data@matlab@@QEAA@AEBV0123@@Z
	??0?$ArrayException@VException@matlab@@$0BA@@detail@data@matlab@@QEAA@V?$basic_string@DU?$char_traits@D@std@@V?$allocator@D@2@@std@@@Z
	??0?$ArrayException@VException@matlab@@$0BC@@detail@data@matlab@@QEAA@AEBV0123@@Z
	??0?$ArrayException@VException@matlab@@$0BC@@detail@data@matlab@@QEAA@V?$basic_string@DU?$char_traits@D@std@@V?$allocator@D@2@@std@@@Z
	??0?$ArrayException@VException@matlab@@$0BD@@detail@data@matlab@@QEAA@AEBV0123@@Z
	??0?$ArrayException@VException@matlab@@$0BD@@detail@data@matlab@@QEAA@V?$basic_string@DU?$char_traits@D@std@@V?$allocator@D@2@@std@@@Z
	??0?$ArrayException@VException@matlab@@$0BE@@detail@data@matlab@@QEAA@AEBV0123@@Z
	??0?$ArrayException@VException@matlab@@$0BE@@detail@data@matlab@@QEAA@V?$basic_string@DU?$char_traits@D@std@@V?$allocator@D@2@@std@@@Z
	??0?$ArrayException@VException@matlab@@$0BF@@detail@data@matlab@@QEAA@AEBV0123@@Z
	??0?$ArrayException@VException@matlab@@$0BF@@detail@data@matlab@@QEAA@V?$basic_string@DU?$char_traits@D@std@@V?$allocator@D@2@@std@@@Z
	??0?$ArrayException@VException@matlab@@$0BG@@detail@data@matlab@@QEAA@AEBV0123@@Z
	??0?$ArrayException@VException@matlab@@$0BG@@detail@data@matlab@@QEAA@V?$basic_string@DU?$char_traits@D@std@@V?$allocator@D@2@@std@@@Z
	??0?$ArrayException@VException@matlab@@$0BH@@detail@data@matlab@@QEAA@AEBV0123@@Z
	??0?$ArrayException@VException@matlab@@$0BH@@detail@data@matlab@@QEAA@V?$basic_string@DU?$char_traits@D@std@@V?$allocator@D@2@@std@@@Z
	??0?$ArrayException@VException@matlab@@$0BI@@detail@data@matlab@@QEAA@AEBV0123@@Z
	??0?$ArrayException@VException@matlab@@$0BI@@detail@data@matlab@@QEAA@V?$basic_string@DU?$char_traits@D@std@@V?$allocator@D@2@@std@@@Z
	??0?$ArrayException@VException@matlab@@$0BJ@@detail@data@matlab@@QEAA@AEBV0123@@Z
	??0?$ArrayException@VException@matlab@@$0BJ@@detail@data@matlab@@QEAA@V?$basic_string@DU?$char_traits@D@std@@V?$allocator@D@2@@std@@@Z
	??0?$ArrayException@VException@matlab@@$0BK@@detail@data@matlab@@QEAA@AEBV0123@@Z
	??0?$ArrayException@VException@matlab@@$0BK@@detail@data@matlab@@QEAA@V?$basic_string@DU?$char_traits@D@std@@V?$allocator@D@2@@std@@@Z
	??0?$ArrayException@VException@matlab@@$0BL@@detail@data@matlab@@QEAA@AEBV0123@@Z
	??0?$ArrayException@VException@matlab@@$0BL@@detail@data@matlab@@QEAA@V?$basic_string@DU?$char_traits@D@std@@V?$allocator@D@2@@std@@@Z
	??0?$ArrayException@VException@matlab@@$0BM@@detail@data@matlab@@QEAA@AEBV0123@@Z
	??0?$ArrayException@VException@matlab@@$0BM@@detail@data@matlab@@QEAA@V?$basic_string@DU?$char_traits@D@std@@V?$allocator@D@2@@std@@@Z
	??0?$ArrayException@VException@matlab@@$0BN@@detail@data@matlab@@QEAA@AEBV0123@@Z
	??0?$ArrayException@VException@matlab@@$0BN@@detail@data@matlab@@QEAA@V?$basic_string@DU?$char_traits@D@std@@V?$allocator@D@2@@std@@@Z
	??0?$ArrayException@VException@matlab@@$0N@@detail@data@matlab@@QEAA@AEBV0123@@Z
	??0?$ArrayException@VException@matlab@@$0N@@detail@data@matlab@@QEAA@V?$basic_string@DU?$char_traits@D@std@@V?$allocator@D@2@@std@@@Z
	??0?$ArrayException@VException@matlab@@$0O@@detail@data@matlab@@QEAA@AEBV0123@@Z
	??0?$ArrayException@VException@matlab@@$0O@@detail@data@matlab@@QEAA@V?$basic_string@DU?$char_traits@D@std@@V?$allocator@D@2@@std@@@Z
	??0?$ArrayException@VException@matlab@@$0P@@detail@data@matlab@@QEAA@AEBV0123@@Z
	??0?$ArrayException@VException@matlab@@$0P@@detail@data@matlab@@QEAA@V?$basic_string@DU?$char_traits@D@std@@V?$allocator@D@2@@std@@@Z
	??0?$DiagnosticStatus_@V?$allocator@X@std@@@diagnostic_msgs@@QEAA@XZ
	??0?$JointState_@V?$allocator@X@std@@@sensor_msgs@@QEAA@XZ
	??0?$KeyValue_@V?$allocator@X@std@@@diagnostic_msgs@@QEAA@AEBU01@@Z
	??0?$KeyValue_@V?$allocator@X@std@@@diagnostic_msgs@@QEAA@XZ
	??0?$MessageEvent@$$CBU?$Object_@V?$allocator@X@std@@@sam_custom_messages@@@ros@@QEAA@AEBV?$MessageEvent@$$CBX@1@AEBV?$function@$$A6A?AV?$shared_ptr@U?$Object_@V?$allocator@X@std@@@sam_custom_messages@@@mwboost@@XZ@mwboost@@@Z
	??0?$MessageEvent@$$CBU?$capability_@V?$allocator@X@std@@@sam_custom_messages@@@ros@@QEAA@AEBV?$MessageEvent@$$CBX@1@AEBV?$function@$$A6A?AV?$shared_ptr@U?$capability_@V?$allocator@X@std@@@sam_custom_messages@@@mwboost@@XZ@mwboost@@@Z
	??0?$MessageEvent@$$CBU?$current_action_@V?$allocator@X@std@@@sam_custom_messages@@@ros@@QEAA@AEBV?$MessageEvent@$$CBX@1@AEBV?$function@$$A6A?AV?$shared_ptr@U?$current_action_@V?$allocator@X@std@@@sam_custom_messages@@@mwboost@@XZ@mwboost@@@Z
	??0?$MessageEvent@$$CBU?$diagnostics_@V?$allocator@X@std@@@sam_custom_messages@@@ros@@QEAA@AEBV?$MessageEvent@$$CBX@1@AEBV?$function@$$A6A?AV?$shared_ptr@U?$diagnostics_@V?$allocator@X@std@@@sam_custom_messages@@@mwboost@@XZ@mwboost@@@Z
	??0?$MessageEvent@$$CBU?$hand_pos_@V?$allocator@X@std@@@sam_custom_messages@@@ros@@QEAA@AEBV?$MessageEvent@$$CBX@1@AEBV?$function@$$A6A?AV?$shared_ptr@U?$hand_pos_@V?$allocator@X@std@@@sam_custom_messages@@@mwboost@@XZ@mwboost@@@Z
	??0?$MessageEvent@$$CBU?$object_state_@V?$allocator@X@std@@@sam_custom_messages@@@ros@@QEAA@AEBV?$MessageEvent@$$CBX@1@AEBV?$function@$$A6A?AV?$shared_ptr@U?$object_state_@V?$allocator@X@std@@@sam_custom_messages@@@mwboost@@XZ@mwboost@@@Z
	??0?$MessageEvent@$$CBU?$robot_state_@V?$allocator@X@std@@@sam_custom_messages@@@ros@@QEAA@AEBV?$MessageEvent@$$CBX@1@AEBV?$function@$$A6A?AV?$shared_ptr@U?$robot_state_@V?$allocator@X@std@@@sam_custom_messages@@@mwboost@@XZ@mwboost@@@Z
	??0?$MessageEvent@$$CBU?$user_prediction_@V?$allocator@X@std@@@sam_custom_messages@@@ros@@QEAA@AEBV?$MessageEvent@$$CBX@1@AEBV?$function@$$A6A?AV?$shared_ptr@U?$user_prediction_@V?$allocator@X@std@@@sam_custom_messages@@@mwboost@@XZ@mwboost@@@Z
	??0?$SubscriptionCallbackHelperT@AEBV?$shared_ptr@$$CBU?$Object_@V?$allocator@X@std@@@sam_custom_messages@@@mwboost@@X@ros@@QEAA@AEBV?$function@$$A6AXV?$shared_ptr@$$CBU?$Object_@V?$allocator@X@std@@@sam_custom_messages@@@mwboost@@@Z@mwboost@@AEBV?$function@$$A6A?AV?$shared_ptr@U?$Object_@V?$allocator@X@std@@@sam_custom_messages@@@mwboost@@XZ@3@@Z
	??0?$SubscriptionCallbackHelperT@AEBV?$shared_ptr@$$CBU?$capability_@V?$allocator@X@std@@@sam_custom_messages@@@mwboost@@X@ros@@QEAA@AEBV?$function@$$A6AXV?$shared_ptr@$$CBU?$capability_@V?$allocator@X@std@@@sam_custom_messages@@@mwboost@@@Z@mwboost@@AEBV?$function@$$A6A?AV?$shared_ptr@U?$capability_@V?$allocator@X@std@@@sam_custom_messages@@@mwboost@@XZ@3@@Z
	??0?$SubscriptionCallbackHelperT@AEBV?$shared_ptr@$$CBU?$current_action_@V?$allocator@X@std@@@sam_custom_messages@@@mwboost@@X@ros@@QEAA@AEBV?$function@$$A6AXV?$shared_ptr@$$CBU?$current_action_@V?$allocator@X@std@@@sam_custom_messages@@@mwboost@@@Z@mwboost@@AEBV?$function@$$A6A?AV?$shared_ptr@U?$current_action_@V?$allocator@X@std@@@sam_custom_messages@@@mwboost@@XZ@3@@Z
	??0?$SubscriptionCallbackHelperT@AEBV?$shared_ptr@$$CBU?$diagnostics_@V?$allocator@X@std@@@sam_custom_messages@@@mwboost@@X@ros@@QEAA@AEBV?$function@$$A6AXV?$shared_ptr@$$CBU?$diagnostics_@V?$allocator@X@std@@@sam_custom_messages@@@mwboost@@@Z@mwboost@@AEBV?$function@$$A6A?AV?$shared_ptr@U?$diagnostics_@V?$allocator@X@std@@@sam_custom_messages@@@mwboost@@XZ@3@@Z
	??0?$SubscriptionCallbackHelperT@AEBV?$shared_ptr@$$CBU?$hand_pos_@V?$allocator@X@std@@@sam_custom_messages@@@mwboost@@X@ros@@QEAA@AEBV?$function@$$A6AXV?$shared_ptr@$$CBU?$hand_pos_@V?$allocator@X@std@@@sam_custom_messages@@@mwboost@@@Z@mwboost@@AEBV?$function@$$A6A?AV?$shared_ptr@U?$hand_pos_@V?$allocator@X@std@@@sam_custom_messages@@@mwboost@@XZ@3@@Z
	??0?$SubscriptionCallbackHelperT@AEBV?$shared_ptr@$$CBU?$object_state_@V?$allocator@X@std@@@sam_custom_messages@@@mwboost@@X@ros@@QEAA@AEBV?$function@$$A6AXV?$shared_ptr@$$CBU?$object_state_@V?$allocator@X@std@@@sam_custom_messages@@@mwboost@@@Z@mwboost@@AEBV?$function@$$A6A?AV?$shared_ptr@U?$object_state_@V?$allocator@X@std@@@sam_custom_messages@@@mwboost@@XZ@3@@Z
	??0?$SubscriptionCallbackHelperT@AEBV?$shared_ptr@$$CBU?$robot_state_@V?$allocator@X@std@@@sam_custom_messages@@@mwboost@@X@ros@@QEAA@AEBV?$function@$$A6AXV?$shared_ptr@$$CBU?$robot_state_@V?$allocator@X@std@@@sam_custom_messages@@@mwboost@@@Z@mwboost@@AEBV?$function@$$A6A?AV?$shared_ptr@U?$robot_state_@V?$allocator@X@std@@@sam_custom_messages@@@mwboost@@XZ@3@@Z
	??0?$SubscriptionCallbackHelperT@AEBV?$shared_ptr@$$CBU?$user_prediction_@V?$allocator@X@std@@@sam_custom_messages@@@mwboost@@X@ros@@QEAA@AEBV?$function@$$A6AXV?$shared_ptr@$$CBU?$user_prediction_@V?$allocator@X@std@@@sam_custom_messages@@@mwboost@@@Z@mwboost@@AEBV?$function@$$A6A?AV?$shared_ptr@U?$user_prediction_@V?$allocator@X@std@@@sam_custom_messages@@@mwboost@@XZ@3@@Z
	??0?$TypedArray@_S@data@matlab@@QEAA@$$QEAVArray@12@@Z
	??0?$TypedIterator@$$CBN@data@matlab@@AEAA@PEAVIteratorImpl@detail@12@@Z
	??0?$TypedIterator@$$CBN@data@matlab@@QEAA@$$QEAV012@@Z
	??0?$TypedIterator@$$CBN@data@matlab@@QEAA@AEBV012@@Z
	??0?$TypedIterator@$$CBVStruct@data@matlab@@@data@matlab@@AEAA@PEAVIteratorImpl@detail@12@@Z
	??0?$_Tree_unchecked_const_iterator@V?$_Tree_val@U?$_Tree_simple_types@U?$pair@$$CBV?$basic_string@DU?$char_traits@D@std@@V?$allocator@D@2@@std@@PEAVAbstractMetaObjectBase@impl@class_loader@@@std@@@std@@@std@@U_Iterator_base0@2@@std@@QEAA@PEAU?$_Tree_node@U?$pair@$$CBV?$basic_string@DU?$char_traits@D@std@@V?$allocator@D@2@@std@@PEAVAbstractMetaObjectBase@impl@class_loader@@@std@@PEAX@1@PEBV?$_Tree_val@U?$_Tree_simple_types@U?$pair@$$CBV?$basic_string@DU?$char_traits@D@std@@V?$allocator@D@2@@std@@PEAVAbstractMetaObjectBase@impl@class_loader@@@std@@@std@@@1@@Z
	??0?$allocator@U?$pair@W4FunctionType@detail@data@matlab@@V?$basic_string@DU?$char_traits@D@std@@V?$allocator@D@2@@std@@@std@@@std@@QEAA@XZ
	??0?$basic_string@DU?$char_traits@D@std@@V?$allocator@D@2@@std@@QEAA@$$QEAV01@@Z
	??0?$basic_string@DU?$char_traits@D@std@@V?$allocator@D@2@@std@@QEAA@AEBV01@@Z
	??0?$basic_string@DU?$char_traits@D@std@@V?$allocator@D@2@@std@@QEAA@QEBD@Z
	??0?$basic_string@DU?$char_traits@D@std@@V?$allocator@D@2@@std@@QEAA@QEBD_K@Z
	??0?$basic_string@DU?$char_traits@D@std@@V?$allocator@D@2@@std@@QEAA@XZ
	??0?$basic_string@DU?$char_traits@D@std@@V?$allocator@D@2@@std@@QEAA@_KD@Z
	??0?$capability_@V?$allocator@X@std@@@sam_custom_messages@@QEAA@XZ
	??0?$clone_impl@U?$error_info_injector@Vbad_function_call@mwboost@@@exception_detail@mwboost@@@exception_detail@mwboost@@AEAA@AEBV012@Uclone_tag@012@@Z
	??0?$clone_impl@U?$error_info_injector@Vbad_function_call@mwboost@@@exception_detail@mwboost@@@exception_detail@mwboost@@QEAA@AEBU?$error_info_injector@Vbad_function_call@mwboost@@@12@@Z
	??0?$clone_impl@U?$error_info_injector@Vbad_function_call@mwboost@@@exception_detail@mwboost@@@exception_detail@mwboost@@QEAA@AEBV012@@Z
	??0?$clone_impl@U?$error_info_injector@Vthread_resource_error@mwboost@@@exception_detail@mwboost@@@exception_detail@mwboost@@AEAA@AEBV012@Uclone_tag@012@@Z
	??0?$clone_impl@U?$error_info_injector@Vthread_resource_error@mwboost@@@exception_detail@mwboost@@@exception_detail@mwboost@@QEAA@AEBU?$error_info_injector@Vthread_resource_error@mwboost@@@12@@Z
	??0?$clone_impl@U?$error_info_injector@Vthread_resource_error@mwboost@@@exception_detail@mwboost@@@exception_detail@mwboost@@QEAA@AEBV012@@Z
	??0?$current_action_@V?$allocator@X@std@@@sam_custom_messages@@QEAA@XZ
	??0?$diagnostics_@V?$allocator@X@std@@@sam_custom_messages@@QEAA@XZ
	??0?$error_info_injector@Vbad_function_call@mwboost@@@exception_detail@mwboost@@QEAA@AEBU012@@Z
	??0?$error_info_injector@Vbad_function_call@mwboost@@@exception_detail@mwboost@@QEAA@AEBVbad_function_call@2@@Z
	??0?$error_info_injector@Vthread_resource_error@mwboost@@@exception_detail@mwboost@@QEAA@AEBU012@@Z
	??0?$error_info_injector@Vthread_resource_error@mwboost@@@exception_detail@mwboost@@QEAA@AEBVthread_resource_error@2@@Z
	??0?$hand_pos_@V?$allocator@X@std@@@sam_custom_messages@@QEAA@XZ
	??0?$initializer_list@U?$pair@W4FunctionType@detail@data@matlab@@V?$basic_string@DU?$char_traits@D@std@@V?$allocator@D@2@@std@@@std@@@std@@QEAA@PEBU?$pair@W4FunctionType@detail@data@matlab@@V?$basic_string@DU?$char_traits@D@std@@V?$allocator@D@2@@std@@@1@0@Z
	??0?$object_state_@V?$allocator@X@std@@@sam_custom_messages@@QEAA@XZ
	??0?$robot_state_@V?$allocator@X@std@@@sam_custom_messages@@QEAA@XZ
	??0?$shared_ptr@$$CBU?$Object_@V?$allocator@X@std@@@sam_custom_messages@@@mwboost@@QEAA@AEBV01@@Z
	??0?$shared_ptr@$$CBU?$capability_@V?$allocator@X@std@@@sam_custom_messages@@@mwboost@@QEAA@AEBV01@@Z
	??0?$shared_ptr@$$CBU?$current_action_@V?$allocator@X@std@@@sam_custom_messages@@@mwboost@@QEAA@AEBV01@@Z
	??0?$shared_ptr@$$CBU?$diagnostics_@V?$allocator@X@std@@@sam_custom_messages@@@mwboost@@QEAA@AEBV01@@Z
	??0?$shared_ptr@$$CBU?$hand_pos_@V?$allocator@X@std@@@sam_custom_messages@@@mwboost@@QEAA@AEBV01@@Z
	??0?$shared_ptr@$$CBU?$object_state_@V?$allocator@X@std@@@sam_custom_messages@@@mwboost@@QEAA@AEBV01@@Z
	??0?$shared_ptr@$$CBU?$robot_state_@V?$allocator@X@std@@@sam_custom_messages@@@mwboost@@QEAA@AEBV01@@Z
	??0?$shared_ptr@$$CBU?$user_prediction_@V?$allocator@X@std@@@sam_custom_messages@@@mwboost@@QEAA@AEBV01@@Z
	??0?$shared_ptr@U?$Object_@V?$allocator@X@std@@@sam_custom_messages@@@mwboost@@QEAA@AEBV01@@Z
	??0?$shared_ptr@U?$capability_@V?$allocator@X@std@@@sam_custom_messages@@@mwboost@@QEAA@AEBV01@@Z
	??0?$shared_ptr@U?$current_action_@V?$allocator@X@std@@@sam_custom_messages@@@mwboost@@QEAA@AEBV01@@Z
	??0?$shared_ptr@U?$diagnostics_@V?$allocator@X@std@@@sam_custom_messages@@@mwboost@@QEAA@AEBV01@@Z
	??0?$shared_ptr@U?$hand_pos_@V?$allocator@X@std@@@sam_custom_messages@@@mwboost@@QEAA@AEBV01@@Z
	??0?$shared_ptr@U?$object_state_@V?$allocator@X@std@@@sam_custom_messages@@@mwboost@@QEAA@AEBV01@@Z
	??0?$shared_ptr@U?$robot_state_@V?$allocator@X@std@@@sam_custom_messages@@@mwboost@@QEAA@AEBV01@@Z
	??0?$shared_ptr@U?$user_prediction_@V?$allocator@X@std@@@sam_custom_messages@@@mwboost@@QEAA@AEBV01@@Z
	??0?$shared_ptr@V?$map@V?$basic_string@DU?$char_traits@D@std@@V?$allocator@D@2@@std@@V12@U?$less@V?$basic_string@DU?$char_traits@D@std@@V?$allocator@D@2@@std@@@2@V?$allocator@U?$pair@$$CBV?$basic_string@DU?$char_traits@D@std@@V?$allocator@D@2@@std@@V12@@std@@@2@@std@@@mwboost@@QEAA@AEBV01@@Z
	??0?$shared_ptr@VArrayImpl@impl@data@matlab@@@std@@QEAA@$$QEAV01@@Z
	??0?$shared_ptr@VArrayImpl@impl@data@matlab@@@std@@QEAA@AEBV01@@Z
	??0?$shared_ptr@VReferenceImpl@detail@data@matlab@@@std@@QEAA@AEBV01@@Z
	??0?$user_prediction_@V?$allocator@X@std@@@sam_custom_messages@@QEAA@XZ
	??0?$vector@U?$pair@W4FunctionType@detail@data@matlab@@V?$basic_string@DU?$char_traits@D@std@@V?$allocator@D@2@@std@@@std@@V?$allocator@U?$pair@W4FunctionType@detail@data@matlab@@V?$basic_string@DU?$char_traits@D@std@@V?$allocator@D@2@@std@@@std@@@2@@std@@QEAA@V?$initializer_list@U?$pair@W4FunctionType@detail@data@matlab@@V?$basic_string@DU?$char_traits@D@std@@V?$allocator@D@2@@std@@@std@@@1@AEBV?$allocator@U?$pair@W4FunctionType@detail@data@matlab@@V?$basic_string@DU?$char_traits@D@std@@V?$allocator@D@2@@std@@@std@@@1@@Z
	??0?$vector@V?$basic_string@DU?$char_traits@D@std@@V?$allocator@D@2@@std@@V?$allocator@V?$basic_string@DU?$char_traits@D@std@@V?$allocator@D@2@@std@@@2@@std@@QEAA@V?$initializer_list@V?$basic_string@DU?$char_traits@D@std@@V?$allocator@D@2@@std@@@1@AEBV?$allocator@V?$basic_string@DU?$char_traits@D@std@@V?$allocator@D@2@@std@@@1@@Z
	??0?$vector@VArray@data@matlab@@V?$allocator@VArray@data@matlab@@@std@@@std@@QEAA@V?$initializer_list@VArray@data@matlab@@@1@AEBV?$allocator@VArray@data@matlab@@@1@@Z
	??0?$vector@_KV?$allocator@_K@std@@@std@@QEAA@$$QEAV01@@Z
	??0?$vector@_KV?$allocator@_K@std@@@std@@QEAA@V?$initializer_list@_K@1@AEBV?$allocator@_K@1@@Z
	??0?$wrapexcept@Vbad_function_call@mwboost@@@mwboost@@QEAA@AEBU01@@Z
	??0?$wrapexcept@Vbad_function_call@mwboost@@@mwboost@@QEAA@AEBU?$error_info_injector@Vbad_function_call@mwboost@@@exception_detail@1@@Z
	??0?$wrapexcept@Vthread_resource_error@mwboost@@@mwboost@@QEAA@AEBU01@@Z
	??0?$wrapexcept@Vthread_resource_error@mwboost@@@mwboost@@QEAA@AEBU?$error_info_injector@Vthread_resource_error@mwboost@@@exception_detail@1@@Z
	??0Array@data@matlab@@IEAA@PEAVArrayImpl@impl@12@@Z
	??0Array@data@matlab@@QEAA@$$QEAV012@@Z
	??0Array@data@matlab@@QEAA@AEBV012@@Z
	??0ArrayFactory@data@matlab@@QEAA@XZ
	??0ArrayReferenceExt@data@matlab@@IEAA@V?$shared_ptr@VReferenceImpl@detail@data@matlab@@@std@@@Z
	??0Exception@matlab@@QEAA@AEBV01@@Z
	??0NameList@ArrayFactory@data@matlab@@QEAA@PEAVNameListImpl@detail@23@@Z
	??0ReferenceHolder@data@matlab@@IEAA@PEAVReferenceImpl@detail@12@@Z
	??0ReferenceHolder@data@matlab@@IEAA@V?$shared_ptr@VReferenceImpl@detail@data@matlab@@@std@@@Z
	??0Struct@data@matlab@@AEAA@V?$shared_ptr@VReferenceImpl@detail@data@matlab@@@std@@@Z
	??0bad_function_call@mwboost@@QEAA@AEBV01@@Z
	??0bad_function_call@mwboost@@QEAA@XZ
	??0clone_base@exception_detail@mwboost@@QEAA@AEBV012@@Z
	??0exception@mwboost@@QEAA@AEBV01@@Z
	??0exception@std@@QEAA@AEBV01@@Z
	??0exception@std@@QEAA@QEBD@Z
	??0invalid_argument@std@@QEAA@AEBV01@@Z
	??0invalid_argument@std@@QEAA@PEBD@Z
	??0logic_error@std@@QEAA@AEBV01@@Z
	??0runtime_error@std@@QEAA@AEBV01@@Z
	??0sam_custom_messages_msg_Object_publisher@@QEAA@AEBV0@@Z
	??0sam_custom_messages_msg_Object_publisher@@QEAA@XZ
	??0sam_custom_messages_msg_Object_subscriber@@QEAA@XZ
	??0sam_custom_messages_msg_capability_publisher@@QEAA@AEBV0@@Z
	??0sam_custom_messages_msg_capability_publisher@@QEAA@XZ
	??0sam_custom_messages_msg_capability_subscriber@@QEAA@XZ
	??0sam_custom_messages_msg_current_action_publisher@@QEAA@AEBV0@@Z
	??0sam_custom_messages_msg_current_action_publisher@@QEAA@XZ
	??0sam_custom_messages_msg_current_action_subscriber@@QEAA@XZ
	??0sam_custom_messages_msg_diagnostics_publisher@@QEAA@AEBV0@@Z
	??0sam_custom_messages_msg_diagnostics_publisher@@QEAA@XZ
	??0sam_custom_messages_msg_diagnostics_subscriber@@QEAA@XZ
	??0sam_custom_messages_msg_hand_pos_publisher@@QEAA@AEBV0@@Z
	??0sam_custom_messages_msg_hand_pos_publisher@@QEAA@XZ
	??0sam_custom_messages_msg_hand_pos_subscriber@@QEAA@XZ
	??0sam_custom_messages_msg_object_state_publisher@@QEAA@AEBV0@@Z
	??0sam_custom_messages_msg_object_state_publisher@@QEAA@XZ
	??0sam_custom_messages_msg_object_state_subscriber@@QEAA@XZ
	??0sam_custom_messages_msg_robot_state_publisher@@QEAA@AEBV0@@Z
	??0sam_custom_messages_msg_robot_state_publisher@@QEAA@XZ
	??0sam_custom_messages_msg_robot_state_subscriber@@QEAA@XZ
	??0sam_custom_messages_msg_user_prediction_publisher@@QEAA@AEBV0@@Z
	??0sam_custom_messages_msg_user_prediction_publisher@@QEAA@XZ
	??0sam_custom_messages_msg_user_prediction_subscriber@@QEAA@XZ
	??0system_error@system@mwboost@@QEAA@AEBV012@@Z
	??0thread_exception@mwboost@@QEAA@AEBV01@@Z
	??0thread_exception@mwboost@@QEAA@HPEBD@Z
	??0thread_resource_error@mwboost@@QEAA@AEBV01@@Z
	??0thread_resource_error@mwboost@@QEAA@XZ
	??1?$ArrayElementTypedRef@C$00@data@matlab@@QEAA@XZ
	??1?$ArrayElementTypedRef@I$00@data@matlab@@QEAA@XZ
	??1?$ArrayElementTypedRef@N$00@data@matlab@@QEAA@XZ
	??1?$ArrayElementTypedRef@VArray@data@matlab@@$00@data@matlab@@QEAA@XZ
	??1?$ArrayElementTypedRef@VArray@data@matlab@@$0A@@data@matlab@@QEAA@XZ
	??1?$ArrayElementTypedRef@VStruct@data@matlab@@$00@data@matlab@@QEAA@XZ
	??1?$ArrayElementTypedRef@VStruct@data@matlab@@$0A@@data@matlab@@QEAA@XZ
	??1?$ArrayException@VException@matlab@@$00@detail@data@matlab@@UEAA@XZ
	??1?$ArrayException@VException@matlab@@$01@detail@data@matlab@@UEAA@XZ
	??1?$ArrayException@VException@matlab@@$02@detail@data@matlab@@UEAA@XZ
	??1?$ArrayException@VException@matlab@@$04@detail@data@matlab@@UEAA@XZ
	??1?$ArrayException@VException@matlab@@$05@detail@data@matlab@@UEAA@XZ
	??1?$ArrayException@VException@matlab@@$06@detail@data@matlab@@UEAA@XZ
	??1?$ArrayException@VException@matlab@@$07@detail@data@matlab@@UEAA@XZ
	??1?$ArrayException@VException@matlab@@$08@detail@data@matlab@@UEAA@XZ
	??1?$ArrayException@VException@matlab@@$09@detail@data@matlab@@UEAA@XZ
	??1?$ArrayException@VException@matlab@@$0BA@@detail@data@matlab@@UEAA@XZ
	??1?$ArrayException@VException@matlab@@$0BC@@detail@data@matlab@@UEAA@XZ
	??1?$ArrayException@VException@matlab@@$0BD@@detail@data@matlab@@UEAA@XZ
	??1?$ArrayException@VException@matlab@@$0BE@@detail@data@matlab@@UEAA@XZ
	??1?$ArrayException@VException@matlab@@$0BF@@detail@data@matlab@@UEAA@XZ
	??1?$ArrayException@VException@matlab@@$0BG@@detail@data@matlab@@UEAA@XZ
	??1?$ArrayException@VException@matlab@@$0BH@@detail@data@matlab@@UEAA@XZ
	??1?$ArrayException@VException@matlab@@$0BI@@detail@data@matlab@@UEAA@XZ
	??1?$ArrayException@VException@matlab@@$0BJ@@detail@data@matlab@@UEAA@XZ
	??1?$ArrayException@VException@matlab@@$0BK@@detail@data@matlab@@UEAA@XZ
	??1?$ArrayException@VException@matlab@@$0BL@@detail@data@matlab@@UEAA@XZ
	??1?$ArrayException@VException@matlab@@$0BM@@detail@data@matlab@@UEAA@XZ
	??1?$ArrayException@VException@matlab@@$0BN@@detail@data@matlab@@UEAA@XZ
	??1?$ArrayException@VException@matlab@@$0N@@detail@data@matlab@@UEAA@XZ
	??1?$ArrayException@VException@matlab@@$0O@@detail@data@matlab@@UEAA@XZ
	??1?$ArrayException@VException@matlab@@$0P@@detail@data@matlab@@UEAA@XZ
	??1?$DiagnosticStatus_@V?$allocator@X@std@@@diagnostic_msgs@@QEAA@XZ
	??1?$Header_@V?$allocator@X@std@@@std_msgs@@QEAA@XZ
	??1?$JointState_@V?$allocator@X@std@@@sensor_msgs@@QEAA@XZ
	??1?$KeyValue_@V?$allocator@X@std@@@diagnostic_msgs@@QEAA@XZ
	??1?$MessageEvent@$$CBU?$Object_@V?$allocator@X@std@@@sam_custom_messages@@@ros@@QEAA@XZ
	??1?$MessageEvent@$$CBU?$capability_@V?$allocator@X@std@@@sam_custom_messages@@@ros@@QEAA@XZ
	??1?$MessageEvent@$$CBU?$current_action_@V?$allocator@X@std@@@sam_custom_messages@@@ros@@QEAA@XZ
	??1?$MessageEvent@$$CBU?$diagnostics_@V?$allocator@X@std@@@sam_custom_messages@@@ros@@QEAA@XZ
	??1?$MessageEvent@$$CBU?$hand_pos_@V?$allocator@X@std@@@sam_custom_messages@@@ros@@QEAA@XZ
	??1?$MessageEvent@$$CBU?$object_state_@V?$allocator@X@std@@@sam_custom_messages@@@ros@@QEAA@XZ
	??1?$MessageEvent@$$CBU?$robot_state_@V?$allocator@X@std@@@sam_custom_messages@@@ros@@QEAA@XZ
	??1?$MessageEvent@$$CBU?$user_prediction_@V?$allocator@X@std@@@sam_custom_messages@@@ros@@QEAA@XZ
	??1?$PreDeserializeParams@U?$Object_@V?$allocator@X@std@@@sam_custom_messages@@@serialization@ros@@QEAA@XZ
	??1?$PreDeserializeParams@U?$capability_@V?$allocator@X@std@@@sam_custom_messages@@@serialization@ros@@QEAA@XZ
	??1?$PreDeserializeParams@U?$current_action_@V?$allocator@X@std@@@sam_custom_messages@@@serialization@ros@@QEAA@XZ
	??1?$PreDeserializeParams@U?$diagnostics_@V?$allocator@X@std@@@sam_custom_messages@@@serialization@ros@@QEAA@XZ
	??1?$PreDeserializeParams@U?$hand_pos_@V?$allocator@X@std@@@sam_custom_messages@@@serialization@ros@@QEAA@XZ
	??1?$PreDeserializeParams@U?$object_state_@V?$allocator@X@std@@@sam_custom_messages@@@serialization@ros@@QEAA@XZ
	??1?$PreDeserializeParams@U?$robot_state_@V?$allocator@X@std@@@sam_custom_messages@@@serialization@ros@@QEAA@XZ
	??1?$PreDeserializeParams@U?$user_prediction_@V?$allocator@X@std@@@sam_custom_messages@@@serialization@ros@@QEAA@XZ
	??1?$TypedArray@C@data@matlab@@UEAA@XZ
	??1?$TypedArray@I@data@matlab@@UEAA@XZ
	??1?$TypedArray@N@data@matlab@@UEAA@XZ
	??1?$TypedArray@VArray@data@matlab@@@data@matlab@@UEAA@XZ
	??1?$TypedArray@VStruct@data@matlab@@@data@matlab@@UEAA@XZ
	??1?$TypedArray@_S@data@matlab@@UEAA@XZ
	??1?$TypedIterator@$$CBN@data@matlab@@QEAA@XZ
	??1?$TypedIterator@$$CBVStruct@data@matlab@@@data@matlab@@QEAA@XZ
	??1?$_String_alloc@U?$_String_base_types@DV?$allocator@D@std@@@std@@@std@@QEAA@XZ
	??1?$_Uninitialized_backout_al@PEAU?$KeyValue_@V?$allocator@X@std@@@diagnostic_msgs@@V?$allocator@U?$KeyValue_@V?$allocator@X@std@@@diagnostic_msgs@@@std@@@std@@QEAA@XZ
	??1?$_Uninitialized_backout_al@PEAU?$pair@W4FunctionType@detail@data@matlab@@V?$basic_string@DU?$char_traits@D@std@@V?$allocator@D@2@@std@@@std@@V?$allocator@U?$pair@W4FunctionType@detail@data@matlab@@V?$basic_string@DU?$char_traits@D@std@@V?$allocator@D@2@@std@@@std@@@2@@std@@QEAA@XZ
	??1?$_Uninitialized_backout_al@PEAV?$basic_string@DU?$char_traits@D@std@@V?$allocator@D@2@@std@@V?$allocator@V?$basic_string@DU?$char_traits@D@std@@V?$allocator@D@2@@std@@@2@@std@@QEAA@XZ
	??1?$_Uninitialized_backout_al@PEAVArray@data@matlab@@V?$allocator@VArray@data@matlab@@@std@@@std@@QEAA@XZ
	??1?$basic_string@DU?$char_traits@D@std@@V?$allocator@D@2@@std@@QEAA@XZ
	??1?$capability_@V?$allocator@X@std@@@sam_custom_messages@@QEAA@XZ
	??1?$clone_impl@U?$error_info_injector@Vbad_function_call@mwboost@@@exception_detail@mwboost@@@exception_detail@mwboost@@UEAA@XZ
	??1?$clone_impl@U?$error_info_injector@Vthread_resource_error@mwboost@@@exception_detail@mwboost@@@exception_detail@mwboost@@UEAA@XZ
	??1?$error_info_injector@Vbad_function_call@mwboost@@@exception_detail@mwboost@@UEAA@XZ
	??1?$error_info_injector@Vthread_resource_error@mwboost@@@exception_detail@mwboost@@UEAA@XZ
	??1?$function0@V?$shared_ptr@U?$Object_@V?$allocator@X@std@@@sam_custom_messages@@@mwboost@@@mwboost@@QEAA@XZ
	??1?$function0@V?$shared_ptr@U?$capability_@V?$allocator@X@std@@@sam_custom_messages@@@mwboost@@@mwboost@@QEAA@XZ
	??1?$function0@V?$shared_ptr@U?$current_action_@V?$allocator@X@std@@@sam_custom_messages@@@mwboost@@@mwboost@@QEAA@XZ
	??1?$function0@V?$shared_ptr@U?$diagnostics_@V?$allocator@X@std@@@sam_custom_messages@@@mwboost@@@mwboost@@QEAA@XZ
	??1?$function0@V?$shared_ptr@U?$hand_pos_@V?$allocator@X@std@@@sam_custom_messages@@@mwboost@@@mwboost@@QEAA@XZ
	??1?$function0@V?$shared_ptr@U?$object_state_@V?$allocator@X@std@@@sam_custom_messages@@@mwboost@@@mwboost@@QEAA@XZ
	??1?$function0@V?$shared_ptr@U?$robot_state_@V?$allocator@X@std@@@sam_custom_messages@@@mwboost@@@mwboost@@QEAA@XZ
	??1?$function0@V?$shared_ptr@U?$user_prediction_@V?$allocator@X@std@@@sam_custom_messages@@@mwboost@@@mwboost@@QEAA@XZ
	??1?$function1@XAEBVSingleSubscriberPublisher@ros@@@mwboost@@QEAA@XZ
	??1?$function@$$A6A?AV?$shared_ptr@U?$Object_@V?$allocator@X@std@@@sam_custom_messages@@@mwboost@@XZ@mwboost@@QEAA@XZ
	??1?$function@$$A6A?AV?$shared_ptr@U?$capability_@V?$allocator@X@std@@@sam_custom_messages@@@mwboost@@XZ@mwboost@@QEAA@XZ
	??1?$function@$$A6A?AV?$shared_ptr@U?$current_action_@V?$allocator@X@std@@@sam_custom_messages@@@mwboost@@XZ@mwboost@@QEAA@XZ
	??1?$function@$$A6A?AV?$shared_ptr@U?$diagnostics_@V?$allocator@X@std@@@sam_custom_messages@@@mwboost@@XZ@mwboost@@QEAA@XZ
	??1?$function@$$A6A?AV?$shared_ptr@U?$hand_pos_@V?$allocator@X@std@@@sam_custom_messages@@@mwboost@@XZ@mwboost@@QEAA@XZ
	??1?$function@$$A6A?AV?$shared_ptr@U?$object_state_@V?$allocator@X@std@@@sam_custom_messages@@@mwboost@@XZ@mwboost@@QEAA@XZ
	??1?$function@$$A6A?AV?$shared_ptr@U?$robot_state_@V?$allocator@X@std@@@sam_custom_messages@@@mwboost@@XZ@mwboost@@QEAA@XZ
	??1?$function@$$A6A?AV?$shared_ptr@U?$user_prediction_@V?$allocator@X@std@@@sam_custom_messages@@@mwboost@@XZ@mwboost@@QEAA@XZ
	??1?$function@$$A6A?AVSerializedMessage@ros@@XZ@mwboost@@QEAA@XZ
	??1?$function@$$A6AXAEBV?$shared_ptr@$$CBU?$Object_@V?$allocator@X@std@@@sam_custom_messages@@@mwboost@@@Z@mwboost@@QEAA@XZ
	??1?$function@$$A6AXAEBV?$shared_ptr@$$CBU?$capability_@V?$allocator@X@std@@@sam_custom_messages@@@mwboost@@@Z@mwboost@@QEAA@XZ
	??1?$function@$$A6AXAEBV?$shared_ptr@$$CBU?$current_action_@V?$allocator@X@std@@@sam_custom_messages@@@mwboost@@@Z@mwboost@@QEAA@XZ
	??1?$function@$$A6AXAEBV?$shared_ptr@$$CBU?$diagnostics_@V?$allocator@X@std@@@sam_custom_messages@@@mwboost@@@Z@mwboost@@QEAA@XZ
	??1?$function@$$A6AXAEBV?$shared_ptr@$$CBU?$hand_pos_@V?$allocator@X@std@@@sam_custom_messages@@@mwboost@@@Z@mwboost@@QEAA@XZ
	??1?$function@$$A6AXAEBV?$shared_ptr@$$CBU?$object_state_@V?$allocator@X@std@@@sam_custom_messages@@@mwboost@@@Z@mwboost@@QEAA@XZ
	??1?$function@$$A6AXAEBV?$shared_ptr@$$CBU?$robot_state_@V?$allocator@X@std@@@sam_custom_messages@@@mwboost@@@Z@mwboost@@QEAA@XZ
	??1?$function@$$A6AXAEBV?$shared_ptr@$$CBU?$user_prediction_@V?$allocator@X@std@@@sam_custom_messages@@@mwboost@@@Z@mwboost@@QEAA@XZ
	??1?$function@$$A6AXAEBVSingleSubscriberPublisher@ros@@@Z@mwboost@@QEAA@XZ
	??1?$function@$$A6AXV?$shared_ptr@$$CBU?$Object_@V?$allocator@X@std@@@sam_custom_messages@@@mwboost@@@Z@mwboost@@QEAA@XZ
	??1?$function@$$A6AXV?$shared_ptr@$$CBU?$capability_@V?$allocator@X@std@@@sam_custom_messages@@@mwboost@@@Z@mwboost@@QEAA@XZ
	??1?$function@$$A6AXV?$shared_ptr@$$CBU?$current_action_@V?$allocator@X@std@@@sam_custom_messages@@@mwboost@@@Z@mwboost@@QEAA@XZ
	??1?$function@$$A6AXV?$shared_ptr@$$CBU?$diagnostics_@V?$allocator@X@std@@@sam_custom_messages@@@mwboost@@@Z@mwboost@@QEAA@XZ
	??1?$function@$$A6AXV?$shared_ptr@$$CBU?$hand_pos_@V?$allocator@X@std@@@sam_custom_messages@@@mwboost@@@Z@mwboost@@QEAA@XZ
	??1?$function@$$A6AXV?$shared_ptr@$$CBU?$object_state_@V?$allocator@X@std@@@sam_custom_messages@@@mwboost@@@Z@mwboost@@QEAA@XZ
	??1?$function@$$A6AXV?$shared_ptr@$$CBU?$robot_state_@V?$allocator@X@std@@@sam_custom_messages@@@mwboost@@@Z@mwboost@@QEAA@XZ
	??1?$function@$$A6AXV?$shared_ptr@$$CBU?$user_prediction_@V?$allocator@X@std@@@sam_custom_messages@@@mwboost@@@Z@mwboost@@QEAA@XZ
	??1?$pair@W4FunctionType@detail@data@matlab@@V?$basic_string@DU?$char_traits@D@std@@V?$allocator@D@2@@std@@@std@@QEAA@XZ
	??1?$refcount_ptr@Uerror_info_container@exception_detail@mwboost@@@exception_detail@mwboost@@QEAA@XZ
	??1?$shared_ptr@$$CBU?$Object_@V?$allocator@X@std@@@sam_custom_messages@@@mwboost@@QEAA@XZ
	??1?$shared_ptr@$$CBU?$capability_@V?$allocator@X@std@@@sam_custom_messages@@@mwboost@@QEAA@XZ
	??1?$shared_ptr@$$CBU?$current_action_@V?$allocator@X@std@@@sam_custom_messages@@@mwboost@@QEAA@XZ
	??1?$shared_ptr@$$CBU?$diagnostics_@V?$allocator@X@std@@@sam_custom_messages@@@mwboost@@QEAA@XZ
	??1?$shared_ptr@$$CBU?$hand_pos_@V?$allocator@X@std@@@sam_custom_messages@@@mwboost@@QEAA@XZ
	??1?$shared_ptr@$$CBU?$object_state_@V?$allocator@X@std@@@sam_custom_messages@@@mwboost@@QEAA@XZ
	??1?$shared_ptr@$$CBU?$robot_state_@V?$allocator@X@std@@@sam_custom_messages@@@mwboost@@QEAA@XZ
	??1?$shared_ptr@$$CBU?$user_prediction_@V?$allocator@X@std@@@sam_custom_messages@@@mwboost@@QEAA@XZ
	??1?$shared_ptr@$$CBX@mwboost@@QEAA@XZ
	??1?$shared_ptr@U?$Object_@V?$allocator@X@std@@@sam_custom_messages@@@mwboost@@QEAA@XZ
	??1?$shared_ptr@U?$capability_@V?$allocator@X@std@@@sam_custom_messages@@@mwboost@@QEAA@XZ
	??1?$shared_ptr@U?$current_action_@V?$allocator@X@std@@@sam_custom_messages@@@mwboost@@QEAA@XZ
	??1?$shared_ptr@U?$diagnostics_@V?$allocator@X@std@@@sam_custom_messages@@@mwboost@@QEAA@XZ
	??1?$shared_ptr@U?$hand_pos_@V?$allocator@X@std@@@sam_custom_messages@@@mwboost@@QEAA@XZ
	??1?$shared_ptr@U?$object_state_@V?$allocator@X@std@@@sam_custom_messages@@@mwboost@@QEAA@XZ
	??1?$shared_ptr@U?$robot_state_@V?$allocator@X@std@@@sam_custom_messages@@@mwboost@@QEAA@XZ
	??1?$shared_ptr@U?$user_prediction_@V?$allocator@X@std@@@sam_custom_messages@@@mwboost@@QEAA@XZ
	??1?$shared_ptr@V?$SubscriptionCallbackHelperT@AEBV?$shared_ptr@$$CBU?$Object_@V?$allocator@X@std@@@sam_custom_messages@@@mwboost@@X@ros@@@mwboost@@QEAA@XZ
	??1?$shared_ptr@V?$SubscriptionCallbackHelperT@AEBV?$shared_ptr@$$CBU?$capability_@V?$allocator@X@std@@@sam_custom_messages@@@mwboost@@X@ros@@@mwboost@@QEAA@XZ
	??1?$shared_ptr@V?$SubscriptionCallbackHelperT@AEBV?$shared_ptr@$$CBU?$current_action_@V?$allocator@X@std@@@sam_custom_messages@@@mwboost@@X@ros@@@mwboost@@QEAA@XZ
	??1?$shared_ptr@V?$SubscriptionCallbackHelperT@AEBV?$shared_ptr@$$CBU?$diagnostics_@V?$allocator@X@std@@@sam_custom_messages@@@mwboost@@X@ros@@@mwboost@@QEAA@XZ
	??1?$shared_ptr@V?$SubscriptionCallbackHelperT@AEBV?$shared_ptr@$$CBU?$hand_pos_@V?$allocator@X@std@@@sam_custom_messages@@@mwboost@@X@ros@@@mwboost@@QEAA@XZ
	??1?$shared_ptr@V?$SubscriptionCallbackHelperT@AEBV?$shared_ptr@$$CBU?$object_state_@V?$allocator@X@std@@@sam_custom_messages@@@mwboost@@X@ros@@@mwboost@@QEAA@XZ
	??1?$shared_ptr@V?$SubscriptionCallbackHelperT@AEBV?$shared_ptr@$$CBU?$robot_state_@V?$allocator@X@std@@@sam_custom_messages@@@mwboost@@X@ros@@@mwboost@@QEAA@XZ
	??1?$shared_ptr@V?$SubscriptionCallbackHelperT@AEBV?$shared_ptr@$$CBU?$user_prediction_@V?$allocator@X@std@@@sam_custom_messages@@@mwboost@@X@ros@@@mwboost@@QEAA@XZ
	??1?$shared_ptr@V?$map@V?$basic_string@DU?$char_traits@D@std@@V?$allocator@D@2@@std@@V12@U?$less@V?$basic_string@DU?$char_traits@D@std@@V?$allocator@D@2@@std@@@2@V?$allocator@U?$pair@$$CBV?$basic_string@DU?$char_traits@D@std@@V?$allocator@D@2@@std@@V12@@std@@@2@@std@@@mwboost@@QEAA@XZ
	??1?$shared_ptr@VArrayFactoryImpl@impl@data@matlab@@@std@@QEAA@XZ
	??1?$shared_ptr@VNodeHandle@ros@@@std@@QEAA@XZ
	??1?$shared_ptr@VPublisher@ros@@@std@@QEAA@XZ
	??1?$shared_ptr@VReferenceImpl@detail@data@matlab@@@std@@QEAA@XZ
	??1?$shared_ptr@VSubscriber@ros@@@std@@QEAA@XZ
	??1?$sp_counted_impl_pd@PEAU?$object_state_@V?$allocator@X@std@@@sam_custom_messages@@V?$sp_ms_deleter@U?$object_state_@V?$allocator@X@std@@@sam_custom_messages@@@detail@mwboost@@@detail@mwboost@@UEAA@XZ
	??1?$vector@V?$basic_string@DU?$char_traits@D@std@@V?$allocator@D@2@@std@@V?$allocator@V?$basic_string@DU?$char_traits@D@std@@V?$allocator@D@2@@std@@@2@@std@@QEAA@XZ
	??1?$vector@VArray@data@matlab@@V?$allocator@VArray@data@matlab@@@std@@@std@@QEAA@XZ
	??1?$vector@_KV?$allocator@_K@std@@@std@@QEAA@XZ
	??1?$wrapexcept@Vbad_function_call@mwboost@@@mwboost@@UEAA@XZ
	??1?$wrapexcept@Vthread_resource_error@mwboost@@@mwboost@@UEAA@XZ
	??1Array@data@matlab@@UEAA@XZ
	??1CharArray@data@matlab@@UEAA@XZ
	??1Exception@matlab@@UEAA@XZ
	??1NameList@ArrayFactory@data@matlab@@QEAA@XZ
	??1Struct@data@matlab@@QEAA@XZ
	??1StructArray@data@matlab@@UEAA@XZ
	??1_Ref_count_base@std@@UEAA@XZ
	??1bad_function_call@mwboost@@UEAA@XZ
	??1clone_base@exception_detail@mwboost@@UEAA@XZ
	??1exception@std@@UEAA@XZ
	??1invalid_argument@std@@UEAA@XZ
	??1local_free@detail@system@mwboost@@QEAA@XZ
	??1runtime_error@std@@UEAA@XZ
	??1sam_custom_messages_msg_Object_publisher@@UEAA@XZ
	??1sam_custom_messages_msg_Object_subscriber@@UEAA@XZ
	??1sam_custom_messages_msg_capability_publisher@@UEAA@XZ
	??1sam_custom_messages_msg_capability_subscriber@@UEAA@XZ
	??1sam_custom_messages_msg_current_action_publisher@@UEAA@XZ
	??1sam_custom_messages_msg_current_action_subscriber@@UEAA@XZ
	??1sam_custom_messages_msg_diagnostics_publisher@@UEAA@XZ
	??1sam_custom_messages_msg_diagnostics_subscriber@@UEAA@XZ
	??1sam_custom_messages_msg_hand_pos_publisher@@UEAA@XZ
	??1sam_custom_messages_msg_hand_pos_subscriber@@UEAA@XZ
	??1sam_custom_messages_msg_object_state_publisher@@UEAA@XZ
	??1sam_custom_messages_msg_object_state_subscriber@@UEAA@XZ
	??1sam_custom_messages_msg_robot_state_publisher@@UEAA@XZ
	??1sam_custom_messages_msg_robot_state_subscriber@@UEAA@XZ
	??1sam_custom_messages_msg_user_prediction_publisher@@UEAA@XZ
	??1sam_custom_messages_msg_user_prediction_subscriber@@UEAA@XZ
	??1shared_count@detail@mwboost@@QEAA@XZ
	??1thread_resource_error@mwboost@@UEAA@XZ
	??4?$ArrayElementTypedRef@VArray@data@matlab@@$0A@@data@matlab@@QEAAAEAV012@VArray@12@@Z
	??4?$DiagnosticStatus_@V?$allocator@X@std@@@diagnostic_msgs@@QEAAAEAU01@AEBU01@@Z
	??4?$JointState_@V?$allocator@X@std@@@sensor_msgs@@QEAAAEAU01@AEBU01@@Z
	??4?$basic_string@DU?$char_traits@D@std@@V?$allocator@D@2@@std@@QEAAAEAV01@$$QEAV01@@Z
	??4?$basic_string@DU?$char_traits@D@std@@V?$allocator@D@2@@std@@QEAAAEAV01@AEBV01@@Z
	??4?$capability_@V?$allocator@X@std@@@sam_custom_messages@@QEAAAEAU01@AEBU01@@Z
	??4?$current_action_@V?$allocator@X@std@@@sam_custom_messages@@QEAAAEAU01@AEBU01@@Z
	??4?$diagnostics_@V?$allocator@X@std@@@sam_custom_messages@@QEAAAEAU01@AEBU01@@Z
	??4?$hand_pos_@V?$allocator@X@std@@@sam_custom_messages@@QEAAAEAU01@AEBU01@@Z
	??4?$object_state_@V?$allocator@X@std@@@sam_custom_messages@@QEAAAEAU01@AEBU01@@Z
	??4?$refcount_ptr@Uerror_info_container@exception_detail@mwboost@@@exception_detail@mwboost@@QEAAAEAV012@AEBV012@@Z
	??4?$robot_state_@V?$allocator@X@std@@@sam_custom_messages@@QEAAAEAU01@AEBU01@@Z
	??4?$shared_ptr@$$CBU?$Object_@V?$allocator@X@std@@@sam_custom_messages@@@mwboost@@QEAAAEAV01@AEBV01@@Z
	??4?$shared_ptr@$$CBU?$capability_@V?$allocator@X@std@@@sam_custom_messages@@@mwboost@@QEAAAEAV01@AEBV01@@Z
	??4?$shared_ptr@$$CBU?$current_action_@V?$allocator@X@std@@@sam_custom_messages@@@mwboost@@QEAAAEAV01@AEBV01@@Z
	??4?$shared_ptr@$$CBU?$diagnostics_@V?$allocator@X@std@@@sam_custom_messages@@@mwboost@@QEAAAEAV01@AEBV01@@Z
	??4?$shared_ptr@$$CBU?$hand_pos_@V?$allocator@X@std@@@sam_custom_messages@@@mwboost@@QEAAAEAV01@AEBV01@@Z
	??4?$shared_ptr@$$CBU?$object_state_@V?$allocator@X@std@@@sam_custom_messages@@@mwboost@@QEAAAEAV01@AEBV01@@Z
	??4?$shared_ptr@$$CBU?$robot_state_@V?$allocator@X@std@@@sam_custom_messages@@@mwboost@@QEAAAEAV01@AEBV01@@Z
	??4?$shared_ptr@$$CBU?$user_prediction_@V?$allocator@X@std@@@sam_custom_messages@@@mwboost@@QEAAAEAV01@AEBV01@@Z
	??4?$shared_ptr@U?$Object_@V?$allocator@X@std@@@sam_custom_messages@@@mwboost@@QEAAAEAV01@$$QEAV01@@Z
	??4?$shared_ptr@U?$Object_@V?$allocator@X@std@@@sam_custom_messages@@@mwboost@@QEAAAEAV01@AEBV01@@Z
	??4?$shared_ptr@U?$capability_@V?$allocator@X@std@@@sam_custom_messages@@@mwboost@@QEAAAEAV01@$$QEAV01@@Z
	??4?$shared_ptr@U?$capability_@V?$allocator@X@std@@@sam_custom_messages@@@mwboost@@QEAAAEAV01@AEBV01@@Z
	??4?$shared_ptr@U?$current_action_@V?$allocator@X@std@@@sam_custom_messages@@@mwboost@@QEAAAEAV01@$$QEAV01@@Z
	??4?$shared_ptr@U?$current_action_@V?$allocator@X@std@@@sam_custom_messages@@@mwboost@@QEAAAEAV01@AEBV01@@Z
	??4?$shared_ptr@U?$diagnostics_@V?$allocator@X@std@@@sam_custom_messages@@@mwboost@@QEAAAEAV01@$$QEAV01@@Z
	??4?$shared_ptr@U?$diagnostics_@V?$allocator@X@std@@@sam_custom_messages@@@mwboost@@QEAAAEAV01@AEBV01@@Z
	??4?$shared_ptr@U?$hand_pos_@V?$allocator@X@std@@@sam_custom_messages@@@mwboost@@QEAAAEAV01@$$QEAV01@@Z
	??4?$shared_ptr@U?$hand_pos_@V?$allocator@X@std@@@sam_custom_messages@@@mwboost@@QEAAAEAV01@AEBV01@@Z
	??4?$shared_ptr@U?$object_state_@V?$allocator@X@std@@@sam_custom_messages@@@mwboost@@QEAAAEAV01@$$QEAV01@@Z
	??4?$shared_ptr@U?$object_state_@V?$allocator@X@std@@@sam_custom_messages@@@mwboost@@QEAAAEAV01@AEBV01@@Z
	??4?$shared_ptr@U?$robot_state_@V?$allocator@X@std@@@sam_custom_messages@@@mwboost@@QEAAAEAV01@$$QEAV01@@Z
	??4?$shared_ptr@U?$robot_state_@V?$allocator@X@std@@@sam_custom_messages@@@mwboost@@QEAAAEAV01@AEBV01@@Z
	??4?$shared_ptr@U?$user_prediction_@V?$allocator@X@std@@@sam_custom_messages@@@mwboost@@QEAAAEAV01@$$QEAV01@@Z
	??4?$shared_ptr@U?$user_prediction_@V?$allocator@X@std@@@sam_custom_messages@@@mwboost@@QEAAAEAV01@AEBV01@@Z
	??4?$shared_ptr@V?$map@V?$basic_string@DU?$char_traits@D@std@@V?$allocator@D@2@@std@@V12@U?$less@V?$basic_string@DU?$char_traits@D@std@@V?$allocator@D@2@@std@@@2@V?$allocator@U?$pair@$$CBV?$basic_string@DU?$char_traits@D@std@@V?$allocator@D@2@@std@@V12@@std@@@2@@std@@@mwboost@@QEAAAEAV01@AEBV01@@Z
	??4?$shared_ptr@VArrayFactoryImpl@impl@data@matlab@@@std@@QEAAAEAV01@$$QEAV01@@Z
	??4?$shared_ptr@VArrayImpl@impl@data@matlab@@@std@@QEAAAEAV01@$$QEAV01@@Z
	??4?$shared_ptr@VIteratorImpl@detail@data@matlab@@@std@@QEAAAEAV01@$$QEAV01@@Z
	??4?$shared_ptr@VPublisher@ros@@@std@@QEAAAEAV01@$$QEAV01@@Z
	??4?$shared_ptr@VPublisher@ros@@@std@@QEAAAEAV01@AEBV01@@Z
	??4?$shared_ptr@VSubscriber@ros@@@std@@QEAAAEAV01@$$QEAV01@@Z
	??4?$user_prediction_@V?$allocator@X@std@@@sam_custom_messages@@QEAAAEAU01@AEBU01@@Z
	??4?$vector@NV?$allocator@N@std@@@std@@QEAAAEAV01@AEBV01@@Z
	??4?$vector@U?$KeyValue_@V?$allocator@X@std@@@diagnostic_msgs@@V?$allocator@U?$KeyValue_@V?$allocator@X@std@@@diagnostic_msgs@@@std@@@std@@QEAAAEAV01@AEBV01@@Z
	??4?$vector@V?$basic_string@DU?$char_traits@D@std@@V?$allocator@D@2@@std@@V?$allocator@V?$basic_string@DU?$char_traits@D@std@@V?$allocator@D@2@@std@@@2@@std@@QEAAAEAV01@AEBV01@@Z
	??4Array@data@matlab@@QEAAAEAV012@$$QEAV012@@Z
	??4sam_custom_messages_msg_Object_publisher@@QEAAAEAV0@AEBV0@@Z
	??4sam_custom_messages_msg_capability_publisher@@QEAAAEAV0@AEBV0@@Z
	??4sam_custom_messages_msg_current_action_publisher@@QEAAAEAV0@AEBV0@@Z
	??4sam_custom_messages_msg_diagnostics_publisher@@QEAAAEAV0@AEBV0@@Z
	??4sam_custom_messages_msg_hand_pos_publisher@@QEAAAEAV0@AEBV0@@Z
	??4sam_custom_messages_msg_object_state_publisher@@QEAAAEAV0@AEBV0@@Z
	??4sam_custom_messages_msg_robot_state_publisher@@QEAAAEAV0@AEBV0@@Z
	??4sam_custom_messages_msg_user_prediction_publisher@@QEAAAEAV0@AEBV0@@Z
	??8system@mwboost@@YA_NAEBVerror_condition@01@0@Z
	??A?$ArrayElementTypedRef@VStruct@data@matlab@@$00@data@matlab@@QEAA?AV?$ArrayElementTypedRef@VArray@data@matlab@@$00@12@V?$basic_string@DU?$char_traits@D@std@@V?$allocator@D@2@@std@@@Z
	??A?$ArrayElementTypedRef@VStruct@data@matlab@@$0A@@data@matlab@@QEAA?AV?$ArrayElementTypedRef@VArray@data@matlab@@$0A@@12@V?$basic_string@DU?$char_traits@D@std@@V?$allocator@D@2@@std@@@Z
	??A?$TypedArray@C@data@matlab@@QEBA?AV?$ArrayElementTypedRef@C$00@12@_K@Z
	??A?$TypedArray@I@data@matlab@@QEBA?AV?$ArrayElementTypedRef@I$00@12@_K@Z
	??A?$TypedArray@N@data@matlab@@QEBA?AV?$ArrayElementTypedRef@N$00@12@_K@Z
	??A?$TypedArray@VArray@data@matlab@@@data@matlab@@QEAA?AV?$ArrayElementTypedRef@VArray@data@matlab@@$0A@@12@_K@Z
	??A?$TypedArray@VArray@data@matlab@@@data@matlab@@QEBA?AV?$ArrayElementTypedRef@VArray@data@matlab@@$00@12@_K@Z
	??A?$TypedArray@VStruct@data@matlab@@@data@matlab@@QEAA?AV?$ArrayElementTypedRef@VStruct@data@matlab@@$0A@@12@_K@Z
	??A?$TypedArray@VStruct@data@matlab@@@data@matlab@@QEBA?AV?$ArrayElementTypedRef@VStruct@data@matlab@@$00@12@_K@Z
	??AStruct@data@matlab@@QEBA?AVArray@12@V?$basic_string@DU?$char_traits@D@std@@V?$allocator@D@2@@std@@@Z
	??B?$ArrayElementTypedRef@C$00@data@matlab@@QEBACXZ
	??B?$ArrayElementTypedRef@I$00@data@matlab@@QEBAIXZ
	??B?$ArrayElementTypedRef@N$00@data@matlab@@QEBANXZ
	??B?$Reference@VStruct@data@matlab@@@data@matlab@@QEBA?AVStruct@12@XZ
	??C?$reverse_iterator@V?$_Vector_const_iterator@V?$_Vector_val@U?$_Simple_types@U?$pair@W4FunctionType@detail@data@matlab@@V?$basic_string@DU?$char_traits@D@std@@V?$allocator@D@2@@std@@@std@@@std@@@std@@@std@@@std@@QEBAPEBU?$pair@W4FunctionType@detail@data@matlab@@V?$basic_string@DU?$char_traits@D@std@@V?$allocator@D@2@@std@@@1@XZ
	??E?$_Tree_unchecked_const_iterator@V?$_Tree_val@U?$_Tree_simple_types@U?$pair@$$CBV?$basic_string@DU?$char_traits@D@std@@V?$allocator@D@2@@std@@PEAVAbstractMetaObjectBase@impl@class_loader@@@std@@@std@@@std@@U_Iterator_base0@2@@std@@QEAAAEAV01@XZ
	??F?$_Tree_unchecked_const_iterator@V?$_Tree_val@U?$_Tree_simple_types@U?$pair@$$CBV?$basic_string@DU?$char_traits@D@std@@V?$allocator@D@2@@std@@PEAVAbstractMetaObjectBase@impl@class_loader@@@std@@@std@@@std@@U_Iterator_base0@2@@std@@QEAAAEAV01@XZ
	??R<lambda_18bde30140702ba20a566c9dc393b8c0>@@QEBA@PEAVArrayImpl@impl@data@matlab@@@Z
	??R<lambda_1cc0c119369d3677f6f4efcaefc6d3c2>@@QEBA@PEAVIteratorImpl@detail@data@matlab@@@Z
	??R<lambda_2615407b98e1f3a14023b76f0dedc381>@@QEBA@PEAVReferenceImpl@detail@data@matlab@@@Z
	??R<lambda_49bc69670bef5877f460780ec06c4b58>@@QEBA@PEAVArrayImpl@impl@data@matlab@@@Z
	??R<lambda_5f4fcb290926e6b66c490376dc93f8ff>@@QEBA@PEAVIteratorImpl@detail@data@matlab@@@Z
	??R<lambda_8717c4bee2934487c85bc1f9f4a10ac1>@@QEBA@PEAVArrayImpl@impl@data@matlab@@@Z
	??R<lambda_9f3a4d0362104a3bede0405fafec76e1>@@QEBA@PEAVNameListImpl@detail@data@matlab@@@Z
	??R<lambda_a4c5f97d4391fb4c09103a727c16defd>@@QEBA@PEAVArrayFactoryImpl@impl@data@matlab@@@Z
	??R<lambda_f604b6d186b888d49827c9591affdc3a>@@QEBA@PEAVIteratorImpl@detail@data@matlab@@@Z
	??R?$bind_t@VSerializedMessage@ros@@P6A?AV12@AEBU?$Object_@V?$allocator@X@std@@@sam_custom_messages@@@ZV?$list1@V?$reference_wrapper@U?$Object_@V?$allocator@X@std@@@sam_custom_messages@@@mwboost@@@_bi@mwboost@@@_bi@mwboost@@QEAA?AVSerializedMessage@ros@@XZ
	??R?$bind_t@VSerializedMessage@ros@@P6A?AV12@AEBU?$capability_@V?$allocator@X@std@@@sam_custom_messages@@@ZV?$list1@V?$reference_wrapper@U?$capability_@V?$allocator@X@std@@@sam_custom_messages@@@mwboost@@@_bi@mwboost@@@_bi@mwboost@@QEAA?AVSerializedMessage@ros@@XZ
	??R?$bind_t@VSerializedMessage@ros@@P6A?AV12@AEBU?$current_action_@V?$allocator@X@std@@@sam_custom_messages@@@ZV?$list1@V?$reference_wrapper@U?$current_action_@V?$allocator@X@std@@@sam_custom_messages@@@mwboost@@@_bi@mwboost@@@_bi@mwboost@@QEAA?AVSerializedMessage@ros@@XZ
	??R?$bind_t@VSerializedMessage@ros@@P6A?AV12@AEBU?$diagnostics_@V?$allocator@X@std@@@sam_custom_messages@@@ZV?$list1@V?$reference_wrapper@U?$diagnostics_@V?$allocator@X@std@@@sam_custom_messages@@@mwboost@@@_bi@mwboost@@@_bi@mwboost@@QEAA?AVSerializedMessage@ros@@XZ
	??R?$bind_t@VSerializedMessage@ros@@P6A?AV12@AEBU?$hand_pos_@V?$allocator@X@std@@@sam_custom_messages@@@ZV?$list1@V?$reference_wrapper@U?$hand_pos_@V?$allocator@X@std@@@sam_custom_messages@@@mwboost@@@_bi@mwboost@@@_bi@mwboost@@QEAA?AVSerializedMessage@ros@@XZ
	??R?$bind_t@VSerializedMessage@ros@@P6A?AV12@AEBU?$object_state_@V?$allocator@X@std@@@sam_custom_messages@@@ZV?$list1@V?$reference_wrapper@U?$object_state_@V?$allocator@X@std@@@sam_custom_messages@@@mwboost@@@_bi@mwboost@@@_bi@mwboost@@QEAA?AVSerializedMessage@ros@@XZ
	??R?$bind_t@VSerializedMessage@ros@@P6A?AV12@AEBU?$robot_state_@V?$allocator@X@std@@@sam_custom_messages@@@ZV?$list1@V?$reference_wrapper@U?$robot_state_@V?$allocator@X@std@@@sam_custom_messages@@@mwboost@@@_bi@mwboost@@@_bi@mwboost@@QEAA?AVSerializedMessage@ros@@XZ
	??R?$bind_t@VSerializedMessage@ros@@P6A?AV12@AEBU?$user_prediction_@V?$allocator@X@std@@@sam_custom_messages@@@ZV?$list1@V?$reference_wrapper@U?$user_prediction_@V?$allocator@X@std@@@sam_custom_messages@@@mwboost@@@_bi@mwboost@@@_bi@mwboost@@QEAA?AVSerializedMessage@ros@@XZ
	??R?$checked_array_deleter@E@mwboost@@QEBAXPEAE@Z
	??R?$function0@V?$shared_ptr@U?$Object_@V?$allocator@X@std@@@sam_custom_messages@@@mwboost@@@mwboost@@QEBA?AV?$shared_ptr@U?$Object_@V?$allocator@X@std@@@sam_custom_messages@@@1@XZ
	??R?$function0@V?$shared_ptr@U?$capability_@V?$allocator@X@std@@@sam_custom_messages@@@mwboost@@@mwboost@@QEBA?AV?$shared_ptr@U?$capability_@V?$allocator@X@std@@@sam_custom_messages@@@1@XZ
	??R?$function0@V?$shared_ptr@U?$current_action_@V?$allocator@X@std@@@sam_custom_messages@@@mwboost@@@mwboost@@QEBA?AV?$shared_ptr@U?$current_action_@V?$allocator@X@std@@@sam_custom_messages@@@1@XZ
	??R?$function0@V?$shared_ptr@U?$diagnostics_@V?$allocator@X@std@@@sam_custom_messages@@@mwboost@@@mwboost@@QEBA?AV?$shared_ptr@U?$diagnostics_@V?$allocator@X@std@@@sam_custom_messages@@@1@XZ
	??R?$function0@V?$shared_ptr@U?$hand_pos_@V?$allocator@X@std@@@sam_custom_messages@@@mwboost@@@mwboost@@QEBA?AV?$shared_ptr@U?$hand_pos_@V?$allocator@X@std@@@sam_custom_messages@@@1@XZ
	??R?$function0@V?$shared_ptr@U?$object_state_@V?$allocator@X@std@@@sam_custom_messages@@@mwboost@@@mwboost@@QEBA?AV?$shared_ptr@U?$object_state_@V?$allocator@X@std@@@sam_custom_messages@@@1@XZ
	??R?$function0@V?$shared_ptr@U?$robot_state_@V?$allocator@X@std@@@sam_custom_messages@@@mwboost@@@mwboost@@QEBA?AV?$shared_ptr@U?$robot_state_@V?$allocator@X@std@@@sam_custom_messages@@@1@XZ
	??R?$function0@V?$shared_ptr@U?$user_prediction_@V?$allocator@X@std@@@sam_custom_messages@@@mwboost@@@mwboost@@QEBA?AV?$shared_ptr@U?$user_prediction_@V?$allocator@X@std@@@sam_custom_messages@@@1@XZ
	??R?$function1@XAEBV?$shared_ptr@$$CBU?$Object_@V?$allocator@X@std@@@sam_custom_messages@@@mwboost@@@mwboost@@QEBAXAEBV?$shared_ptr@$$CBU?$Object_@V?$allocator@X@std@@@sam_custom_messages@@@1@@Z
	??R?$function1@XAEBV?$shared_ptr@$$CBU?$capability_@V?$allocator@X@std@@@sam_custom_messages@@@mwboost@@@mwboost@@QEBAXAEBV?$shared_ptr@$$CBU?$capability_@V?$allocator@X@std@@@sam_custom_messages@@@1@@Z
	??R?$function1@XAEBV?$shared_ptr@$$CBU?$current_action_@V?$allocator@X@std@@@sam_custom_messages@@@mwboost@@@mwboost@@QEBAXAEBV?$shared_ptr@$$CBU?$current_action_@V?$allocator@X@std@@@sam_custom_messages@@@1@@Z
	??R?$function1@XAEBV?$shared_ptr@$$CBU?$diagnostics_@V?$allocator@X@std@@@sam_custom_messages@@@mwboost@@@mwboost@@QEBAXAEBV?$shared_ptr@$$CBU?$diagnostics_@V?$allocator@X@std@@@sam_custom_messages@@@1@@Z
	??R?$function1@XAEBV?$shared_ptr@$$CBU?$hand_pos_@V?$allocator@X@std@@@sam_custom_messages@@@mwboost@@@mwboost@@QEBAXAEBV?$shared_ptr@$$CBU?$hand_pos_@V?$allocator@X@std@@@sam_custom_messages@@@1@@Z
	??R?$function1@XAEBV?$shared_ptr@$$CBU?$object_state_@V?$allocator@X@std@@@sam_custom_messages@@@mwboost@@@mwboost@@QEBAXAEBV?$shared_ptr@$$CBU?$object_state_@V?$allocator@X@std@@@sam_custom_messages@@@1@@Z
	??R?$function1@XAEBV?$shared_ptr@$$CBU?$robot_state_@V?$allocator@X@std@@@sam_custom_messages@@@mwboost@@@mwboost@@QEBAXAEBV?$shared_ptr@$$CBU?$robot_state_@V?$allocator@X@std@@@sam_custom_messages@@@1@@Z
	??R?$function1@XAEBV?$shared_ptr@$$CBU?$user_prediction_@V?$allocator@X@std@@@sam_custom_messages@@@mwboost@@@mwboost@@QEBAXAEBV?$shared_ptr@$$CBU?$user_prediction_@V?$allocator@X@std@@@sam_custom_messages@@@1@@Z
	??R?$function1@XV?$shared_ptr@$$CBU?$Object_@V?$allocator@X@std@@@sam_custom_messages@@@mwboost@@@mwboost@@QEBAXV?$shared_ptr@$$CBU?$Object_@V?$allocator@X@std@@@sam_custom_messages@@@1@@Z
	??R?$function1@XV?$shared_ptr@$$CBU?$capability_@V?$allocator@X@std@@@sam_custom_messages@@@mwboost@@@mwboost@@QEBAXV?$shared_ptr@$$CBU?$capability_@V?$allocator@X@std@@@sam_custom_messages@@@1@@Z
	??R?$function1@XV?$shared_ptr@$$CBU?$current_action_@V?$allocator@X@std@@@sam_custom_messages@@@mwboost@@@mwboost@@QEBAXV?$shared_ptr@$$CBU?$current_action_@V?$allocator@X@std@@@sam_custom_messages@@@1@@Z
	??R?$function1@XV?$shared_ptr@$$CBU?$diagnostics_@V?$allocator@X@std@@@sam_custom_messages@@@mwboost@@@mwboost@@QEBAXV?$shared_ptr@$$CBU?$diagnostics_@V?$allocator@X@std@@@sam_custom_messages@@@1@@Z
	??R?$function1@XV?$shared_ptr@$$CBU?$hand_pos_@V?$allocator@X@std@@@sam_custom_messages@@@mwboost@@@mwboost@@QEBAXV?$shared_ptr@$$CBU?$hand_pos_@V?$allocator@X@std@@@sam_custom_messages@@@1@@Z
	??R?$function1@XV?$shared_ptr@$$CBU?$object_state_@V?$allocator@X@std@@@sam_custom_messages@@@mwboost@@@mwboost@@QEBAXV?$shared_ptr@$$CBU?$object_state_@V?$allocator@X@std@@@sam_custom_messages@@@1@@Z
	??R?$function1@XV?$shared_ptr@$$CBU?$robot_state_@V?$allocator@X@std@@@sam_custom_messages@@@mwboost@@@mwboost@@QEBAXV?$shared_ptr@$$CBU?$robot_state_@V?$allocator@X@std@@@sam_custom_messages@@@1@@Z
	??R?$function1@XV?$shared_ptr@$$CBU?$user_prediction_@V?$allocator@X@std@@@sam_custom_messages@@@mwboost@@@mwboost@@QEBAXV?$shared_ptr@$$CBU?$user_prediction_@V?$allocator@X@std@@@sam_custom_messages@@@1@@Z
	??_D?$clone_impl@U?$error_info_injector@Vbad_function_call@mwboost@@@exception_detail@mwboost@@@exception_detail@mwboost@@QEAAXXZ
	??_D?$clone_impl@U?$error_info_injector@Vthread_resource_error@mwboost@@@exception_detail@mwboost@@@exception_detail@mwboost@@QEAAXXZ
	??_D?$wrapexcept@Vbad_function_call@mwboost@@@mwboost@@QEAAXXZ
	??_D?$wrapexcept@Vthread_resource_error@mwboost@@@mwboost@@QEAAXXZ
	?_Adjust_manually_vector_aligned@std@@YAXAEAPEAXAEA_K@Z
	?_Assign_rv_contents_with_alloc_always_equal@?$basic_string@DU?$char_traits@D@std@@V?$allocator@D@2@@std@@QEAAX$$QEAV12@U?$integral_constant@_N$00@2@@Z
	?_Atomic_fetch_sub_4@std@@YAKPECKKW4memory_order@1@@Z
	?_Buy@?$vector@NV?$allocator@N@std@@@std@@AEAA_N_K@Z
	?_Buy@?$vector@U?$KeyValue_@V?$allocator@X@std@@@diagnostic_msgs@@V?$allocator@U?$KeyValue_@V?$allocator@X@std@@@diagnostic_msgs@@@std@@@std@@AEAA_N_K@Z
	?_Buy@?$vector@U?$pair@W4FunctionType@detail@data@matlab@@V?$basic_string@DU?$char_traits@D@std@@V?$allocator@D@2@@std@@@std@@V?$allocator@U?$pair@W4FunctionType@detail@data@matlab@@V?$basic_string@DU?$char_traits@D@std@@V?$allocator@D@2@@std@@@std@@@2@@std@@AEAA_N_K@Z
	?_Buy@?$vector@V?$basic_string@DU?$char_traits@D@std@@V?$allocator@D@2@@std@@V?$allocator@V?$basic_string@DU?$char_traits@D@std@@V?$allocator@D@2@@std@@@2@@std@@AEAA_N_K@Z
	?_Buy@?$vector@VArray@data@matlab@@V?$allocator@VArray@data@matlab@@@std@@@std@@AEAA_N_K@Z
	?_Buy@?$vector@_KV?$allocator@_K@std@@@std@@AEAA_N_K@Z
	?_Buynode0@?$_Tree_comp_alloc@V?$_Tmap_traits@V?$basic_string@DU?$char_traits@D@std@@V?$allocator@D@2@@std@@PEAVAbstractMetaObjectBase@impl@class_loader@@U?$less@V?$basic_string@DU?$char_traits@D@std@@V?$allocator@D@2@@std@@@2@V?$allocator@U?$pair@$$CBV?$basic_string@DU?$char_traits@D@std@@V?$allocator@D@2@@std@@PEAVAbstractMetaObjectBase@impl@class_loader@@@std@@@2@$0A@@std@@@std@@QEAAPEAU?$_Tree_node@U?$pair@$$CBV?$basic_string@DU?$char_traits@D@std@@V?$allocator@D@2@@std@@PEAVAbstractMetaObjectBase@impl@class_loader@@@std@@PEAX@2@XZ
	?_Calculate_growth@?$basic_string@DU?$char_traits@D@std@@V?$allocator@D@2@@std@@QEBA_K_K@Z
	?_Calculate_growth@?$vector@NV?$allocator@N@std@@@std@@AEBA_K_K@Z
	?_Calculate_growth@?$vector@U?$KeyValue_@V?$allocator@X@std@@@diagnostic_msgs@@V?$allocator@U?$KeyValue_@V?$allocator@X@std@@@diagnostic_msgs@@@std@@@std@@AEBA_K_K@Z
	?_Calculate_growth@?$vector@V?$basic_string@DU?$char_traits@D@std@@V?$allocator@D@2@@std@@V?$allocator@V?$basic_string@DU?$char_traits@D@std@@V?$allocator@D@2@@std@@@2@@std@@AEBA_K_K@Z
	?_Change_array@?$vector@NV?$allocator@N@std@@@std@@AEAAXQEAN_K1@Z
	?_Change_array@?$vector@U?$KeyValue_@V?$allocator@X@std@@@diagnostic_msgs@@V?$allocator@U?$KeyValue_@V?$allocator@X@std@@@diagnostic_msgs@@@std@@@std@@AEAAXQEAU?$KeyValue_@V?$allocator@X@std@@@diagnostic_msgs@@_K1@Z
	?_Change_array@?$vector@V?$basic_string@DU?$char_traits@D@std@@V?$allocator@D@2@@std@@V?$allocator@V?$basic_string@DU?$char_traits@D@std@@V?$allocator@D@2@@std@@@2@@std@@AEAAXQEAV?$basic_string@DU?$char_traits@D@std@@V?$allocator@D@2@@2@_K1@Z
	?_Construct_lv_contents@?$basic_string@DU?$char_traits@D@std@@V?$allocator@D@2@@std@@QEAAXAEBV12@@Z
	?_Decref@_Ref_count_base@std@@QEAAXXZ
	?_Delete_this@?$_Ref_count_obj@VPublisher@ros@@@std@@EEAAXXZ
	?_Delete_this@?$_Ref_count_obj@VSubscriber@ros@@@std@@EEAAXXZ
	?_Delete_this@?$_Ref_count_resource@PEAVArrayFactoryImpl@impl@data@matlab@@V<lambda_a4c5f97d4391fb4c09103a727c16defd>@@@std@@EEAAXXZ
	?_Delete_this@?$_Ref_count_resource@PEAVArrayImpl@impl@data@matlab@@V<lambda_18bde30140702ba20a566c9dc393b8c0>@@@std@@EEAAXXZ
	?_Delete_this@?$_Ref_count_resource@PEAVArrayImpl@impl@data@matlab@@V<lambda_49bc69670bef5877f460780ec06c4b58>@@@std@@EEAAXXZ
	?_Delete_this@?$_Ref_count_resource@PEAVArrayImpl@impl@data@matlab@@V<lambda_8717c4bee2934487c85bc1f9f4a10ac1>@@@std@@EEAAXXZ
	?_Delete_this@?$_Ref_count_resource@PEAVIteratorImpl@detail@data@matlab@@V<lambda_1cc0c119369d3677f6f4efcaefc6d3c2>@@@std@@EEAAXXZ
	?_Delete_this@?$_Ref_count_resource@PEAVIteratorImpl@detail@data@matlab@@V<lambda_5f4fcb290926e6b66c490376dc93f8ff>@@@std@@EEAAXXZ
	?_Delete_this@?$_Ref_count_resource@PEAVIteratorImpl@detail@data@matlab@@V<lambda_f604b6d186b888d49827c9591affdc3a>@@@std@@EEAAXXZ
	?_Delete_this@?$_Ref_count_resource@PEAVNameListImpl@detail@data@matlab@@V<lambda_9f3a4d0362104a3bede0405fafec76e1>@@@std@@EEAAXXZ
	?_Delete_this@?$_Ref_count_resource@PEAVReferenceImpl@detail@data@matlab@@V<lambda_2615407b98e1f3a14023b76f0dedc381>@@@std@@EEAAXXZ
	?_Destroy@?$_Ref_count_obj@VPublisher@ros@@@std@@EEAAXXZ
	?_Destroy@?$_Ref_count_obj@VSubscriber@ros@@@std@@EEAAXXZ
	?_Destroy@?$_Ref_count_resource@PEAVArrayFactoryImpl@impl@data@matlab@@V<lambda_a4c5f97d4391fb4c09103a727c16defd>@@@std@@EEAAXXZ
	?_Destroy@?$_Ref_count_resource@PEAVArrayImpl@impl@data@matlab@@V<lambda_18bde30140702ba20a566c9dc393b8c0>@@@std@@EEAAXXZ
	?_Destroy@?$_Ref_count_resource@PEAVArrayImpl@impl@data@matlab@@V<lambda_49bc69670bef5877f460780ec06c4b58>@@@std@@EEAAXXZ
	?_Destroy@?$_Ref_count_resource@PEAVArrayImpl@impl@data@matlab@@V<lambda_8717c4bee2934487c85bc1f9f4a10ac1>@@@std@@EEAAXXZ
	?_Destroy@?$_Ref_count_resource@PEAVIteratorImpl@detail@data@matlab@@V<lambda_1cc0c119369d3677f6f4efcaefc6d3c2>@@@std@@EEAAXXZ
	?_Destroy@?$_Ref_count_resource@PEAVIteratorImpl@detail@data@matlab@@V<lambda_5f4fcb290926e6b66c490376dc93f8ff>@@@std@@EEAAXXZ
	?_Destroy@?$_Ref_count_resource@PEAVIteratorImpl@detail@data@matlab@@V<lambda_f604b6d186b888d49827c9591affdc3a>@@@std@@EEAAXXZ
	?_Destroy@?$_Ref_count_resource@PEAVNameListImpl@detail@data@matlab@@V<lambda_9f3a4d0362104a3bede0405fafec76e1>@@@std@@EEAAXXZ
	?_Destroy@?$_Ref_count_resource@PEAVReferenceImpl@detail@data@matlab@@V<lambda_2615407b98e1f3a14023b76f0dedc381>@@@std@@EEAAXXZ
	?_Destroy@?$vector@NV?$allocator@N@std@@@std@@AEAAXPEAN0@Z
	?_Destroy@?$vector@U?$KeyValue_@V?$allocator@X@std@@@diagnostic_msgs@@V?$allocator@U?$KeyValue_@V?$allocator@X@std@@@diagnostic_msgs@@@std@@@std@@AEAAXPEAU?$KeyValue_@V?$allocator@X@std@@@diagnostic_msgs@@0@Z
	?_Destroy@?$vector@V?$basic_string@DU?$char_traits@D@std@@V?$allocator@D@2@@std@@V?$allocator@V?$basic_string@DU?$char_traits@D@std@@V?$allocator@D@2@@std@@@2@@std@@AEAAXPEAV?$basic_string@DU?$char_traits@D@std@@V?$allocator@D@2@@2@0@Z
	?_Destroy_if_node@?$_Tree@V?$_Tmap_traits@V?$basic_string@DU?$char_traits@D@std@@V?$allocator@D@2@@std@@PEAVAbstractMetaObjectBase@impl@class_loader@@U?$less@V?$basic_string@DU?$char_traits@D@std@@V?$allocator@D@2@@std@@@2@V?$allocator@U?$pair@$$CBV?$basic_string@DU?$char_traits@D@std@@V?$allocator@D@2@@std@@PEAVAbstractMetaObjectBase@impl@class_loader@@@std@@@2@$0A@@std@@@std@@IEAAXPEAU?$_Tree_node@U?$pair@$$CBV?$basic_string@DU?$char_traits@D@std@@V?$allocator@D@2@@std@@PEAVAbstractMetaObjectBase@impl@class_loader@@@std@@PEAX@2@@Z
	?_Eos@?$basic_string@DU?$char_traits@D@std@@V?$allocator@D@2@@std@@QEAAX_K@Z
	?_Freenode0@?$_Tree_comp_alloc@V?$_Tmap_traits@V?$basic_string@DU?$char_traits@D@std@@V?$allocator@D@2@@std@@PEAVAbstractMetaObjectBase@impl@class_loader@@U?$less@V?$basic_string@DU?$char_traits@D@std@@V?$allocator@D@2@@std@@@2@V?$allocator@U?$pair@$$CBV?$basic_string@DU?$char_traits@D@std@@V?$allocator@D@2@@std@@PEAVAbstractMetaObjectBase@impl@class_loader@@@std@@@2@$0A@@std@@@std@@QEAAXPEAU?$_Tree_node@U?$pair@$$CBV?$basic_string@DU?$char_traits@D@std@@V?$allocator@D@2@@std@@PEAVAbstractMetaObjectBase@impl@class_loader@@@std@@PEAX@2@@Z
	?_Get_deleter@?$_Ref_count_resource@PEAVArrayFactoryImpl@impl@data@matlab@@V<lambda_a4c5f97d4391fb4c09103a727c16defd>@@@std@@UEBAPEAXAEBVtype_info@@@Z
	?_Get_deleter@?$_Ref_count_resource@PEAVArrayImpl@impl@data@matlab@@V<lambda_18bde30140702ba20a566c9dc393b8c0>@@@std@@UEBAPEAXAEBVtype_info@@@Z
	?_Get_deleter@?$_Ref_count_resource@PEAVArrayImpl@impl@data@matlab@@V<lambda_49bc69670bef5877f460780ec06c4b58>@@@std@@UEBAPEAXAEBVtype_info@@@Z
	?_Get_deleter@?$_Ref_count_resource@PEAVArrayImpl@impl@data@matlab@@V<lambda_8717c4bee2934487c85bc1f9f4a10ac1>@@@std@@UEBAPEAXAEBVtype_info@@@Z
	?_Get_deleter@?$_Ref_count_resource@PEAVIteratorImpl@detail@data@matlab@@V<lambda_1cc0c119369d3677f6f4efcaefc6d3c2>@@@std@@UEBAPEAXAEBVtype_info@@@Z
	?_Get_deleter@?$_Ref_count_resource@PEAVIteratorImpl@detail@data@matlab@@V<lambda_5f4fcb290926e6b66c490376dc93f8ff>@@@std@@UEBAPEAXAEBVtype_info@@@Z
	?_Get_deleter@?$_Ref_count_resource@PEAVIteratorImpl@detail@data@matlab@@V<lambda_f604b6d186b888d49827c9591affdc3a>@@@std@@UEBAPEAXAEBVtype_info@@@Z
	?_Get_deleter@?$_Ref_count_resource@PEAVNameListImpl@detail@data@matlab@@V<lambda_9f3a4d0362104a3bede0405fafec76e1>@@@std@@UEBAPEAXAEBVtype_info@@@Z
	?_Get_deleter@?$_Ref_count_resource@PEAVReferenceImpl@detail@data@matlab@@V<lambda_2615407b98e1f3a14023b76f0dedc381>@@@std@@UEBAPEAXAEBVtype_info@@@Z
	?_Get_deleter@_Ref_count_base@std@@UEBAPEAXAEBVtype_info@@@Z
	?_Getal@?$_Vector_alloc@U?$_Vec_base_types@NV?$allocator@N@std@@@std@@@std@@QEAAAEAV?$allocator@N@2@XZ
	?_Getal@?$_Vector_alloc@U?$_Vec_base_types@U?$KeyValue_@V?$allocator@X@std@@@diagnostic_msgs@@V?$allocator@U?$KeyValue_@V?$allocator@X@std@@@diagnostic_msgs@@@std@@@std@@@std@@QEAAAEAV?$allocator@U?$KeyValue_@V?$allocator@X@std@@@diagnostic_msgs@@@2@XZ
	?_Getal@?$_Vector_alloc@U?$_Vec_base_types@V?$basic_string@DU?$char_traits@D@std@@V?$allocator@D@2@@std@@V?$allocator@V?$basic_string@DU?$char_traits@D@std@@V?$allocator@D@2@@std@@@2@@std@@@std@@QEAAAEAV?$allocator@V?$basic_string@DU?$char_traits@D@std@@V?$allocator@D@2@@std@@@2@XZ
	?_Has_unused_capacity@?$vector@U?$KeyValue_@V?$allocator@X@std@@@diagnostic_msgs@@V?$allocator@U?$KeyValue_@V?$allocator@X@std@@@diagnostic_msgs@@@std@@@std@@AEBA_NXZ
	?_Has_unused_capacity@?$vector@V?$basic_string@DU?$char_traits@D@std@@V?$allocator@D@2@@std@@V?$allocator@V?$basic_string@DU?$char_traits@D@std@@V?$allocator@D@2@@std@@@2@@std@@AEBA_NXZ
	?_Lrotate@?$_Tree_val@U?$_Tree_simple_types@U?$pair@$$CBV?$basic_string@DU?$char_traits@D@std@@V?$allocator@D@2@@std@@PEAVAbstractMetaObjectBase@impl@class_loader@@@std@@@std@@@std@@QEAAXPEAU?$_Tree_node@U?$pair@$$CBV?$basic_string@DU?$char_traits@D@std@@V?$allocator@D@2@@std@@PEAVAbstractMetaObjectBase@impl@class_loader@@@std@@PEAX@2@@Z
	?_Maklocwcs@std@@YAPEA_WPEB_W@Z
	?_Move_from@?$vector@_KV?$allocator@_K@std@@@std@@AEAAX$$QEAV12@U?$integral_constant@_N$00@2@@Z
	?_Rrotate@?$_Tree_val@U?$_Tree_simple_types@U?$pair@$$CBV?$basic_string@DU?$char_traits@D@std@@V?$allocator@D@2@@std@@PEAVAbstractMetaObjectBase@impl@class_loader@@@std@@@std@@@std@@QEAAXPEAU?$_Tree_node@U?$pair@$$CBV?$basic_string@DU?$char_traits@D@std@@V?$allocator@D@2@@std@@PEAVAbstractMetaObjectBase@impl@class_loader@@@std@@PEAX@2@@Z
	?_Swap@?$_Ptr_base@VArrayFactoryImpl@impl@data@matlab@@@std@@IEAAXAEAV12@@Z
	?_Swap@?$_Ptr_base@VArrayImpl@impl@data@matlab@@@std@@IEAAXAEAV12@@Z
	?_Swap@?$_Ptr_base@VIteratorImpl@detail@data@matlab@@@std@@IEAAXAEAV12@@Z
	?_Swap@?$_Ptr_base@VPublisher@ros@@@std@@IEAAXAEAV12@@Z
	?_Swap@?$_Ptr_base@VSubscriber@ros@@@std@@IEAAXAEAV12@@Z
	?_Tidy@?$vector@NV?$allocator@N@std@@@std@@AEAAXXZ
	?_Tidy@?$vector@U?$KeyValue_@V?$allocator@X@std@@@diagnostic_msgs@@V?$allocator@U?$KeyValue_@V?$allocator@X@std@@@diagnostic_msgs@@@std@@@std@@AEAAXXZ
	?_Tidy@?$vector@U?$pair@W4FunctionType@detail@data@matlab@@V?$basic_string@DU?$char_traits@D@std@@V?$allocator@D@2@@std@@@std@@V?$allocator@U?$pair@W4FunctionType@detail@data@matlab@@V?$basic_string@DU?$char_traits@D@std@@V?$allocator@D@2@@std@@@std@@@2@@std@@AEAAXXZ
	?_Tidy@?$vector@V?$basic_string@DU?$char_traits@D@std@@V?$allocator@D@2@@std@@V?$allocator@V?$basic_string@DU?$char_traits@D@std@@V?$allocator@D@2@@std@@@2@@std@@AEAAXXZ
	?_Tidy@?$vector@VArray@data@matlab@@V?$allocator@VArray@data@matlab@@@std@@@std@@AEAAXXZ
	?_Tidy@?$vector@_KV?$allocator@_K@std@@@std@@AEAAXXZ
	?_Tidy_deallocate@?$basic_string@DU?$char_traits@D@std@@V?$allocator@D@2@@std@@QEAAXXZ
	?_Udefault@?$vector@NV?$allocator@N@std@@@std@@AEAAPEANPEAN_K@Z
	?_Xlen@?$basic_string@DU?$char_traits@D@std@@V?$allocator@D@2@@std@@SAXXZ
	?_Xlength@?$vector@NV?$allocator@N@std@@@std@@CAXXZ
	?_Xlength@?$vector@U?$KeyValue_@V?$allocator@X@std@@@diagnostic_msgs@@V?$allocator@U?$KeyValue_@V?$allocator@X@std@@@diagnostic_msgs@@@std@@@std@@CAXXZ
	?_Xlength@?$vector@U?$pair@W4FunctionType@detail@data@matlab@@V?$basic_string@DU?$char_traits@D@std@@V?$allocator@D@2@@std@@@std@@V?$allocator@U?$pair@W4FunctionType@detail@data@matlab@@V?$basic_string@DU?$char_traits@D@std@@V?$allocator@D@2@@std@@@std@@@2@@std@@CAXXZ
	?_Xlength@?$vector@V?$basic_string@DU?$char_traits@D@std@@V?$allocator@D@2@@std@@V?$allocator@V?$basic_string@DU?$char_traits@D@std@@V?$allocator@D@2@@std@@@2@@std@@CAXXZ
	?_Xlength@?$vector@VArray@data@matlab@@V?$allocator@VArray@data@matlab@@@std@@@std@@CAXXZ
	?_Xlength@?$vector@_KV?$allocator@_K@std@@@std@@CAXXZ
	?_Xran@?$_String_val@U?$_Simple_types@D@std@@@std@@SAXXZ
	?_internal_get_untyped_deleter@?$shared_ptr@U?$Object_@V?$allocator@X@std@@@sam_custom_messages@@@mwboost@@QEBAPEAXXZ
	?_internal_get_untyped_deleter@?$shared_ptr@U?$capability_@V?$allocator@X@std@@@sam_custom_messages@@@mwboost@@QEBAPEAXXZ
	?_internal_get_untyped_deleter@?$shared_ptr@U?$current_action_@V?$allocator@X@std@@@sam_custom_messages@@@mwboost@@QEBAPEAXXZ
	?_internal_get_untyped_deleter@?$shared_ptr@U?$diagnostics_@V?$allocator@X@std@@@sam_custom_messages@@@mwboost@@QEBAPEAXXZ
	?_internal_get_untyped_deleter@?$shared_ptr@U?$hand_pos_@V?$allocator@X@std@@@sam_custom_messages@@@mwboost@@QEBAPEAXXZ
	?_internal_get_untyped_deleter@?$shared_ptr@U?$object_state_@V?$allocator@X@std@@@sam_custom_messages@@@mwboost@@QEBAPEAXXZ
	?_internal_get_untyped_deleter@?$shared_ptr@U?$robot_state_@V?$allocator@X@std@@@sam_custom_messages@@@mwboost@@QEBAPEAXXZ
	?_internal_get_untyped_deleter@?$shared_ptr@U?$user_prediction_@V?$allocator@X@std@@@sam_custom_messages@@@mwboost@@QEBAPEAXXZ
	?_internal_get_untyped_deleter@?$shared_ptr@V?$SubscriptionCallbackHelperT@AEBV?$shared_ptr@$$CBU?$Object_@V?$allocator@X@std@@@sam_custom_messages@@@mwboost@@X@ros@@@mwboost@@QEBAPEAXXZ
	?_internal_get_untyped_deleter@?$shared_ptr@V?$SubscriptionCallbackHelperT@AEBV?$shared_ptr@$$CBU?$capability_@V?$allocator@X@std@@@sam_custom_messages@@@mwboost@@X@ros@@@mwboost@@QEBAPEAXXZ
	?_internal_get_untyped_deleter@?$shared_ptr@V?$SubscriptionCallbackHelperT@AEBV?$shared_ptr@$$CBU?$current_action_@V?$allocator@X@std@@@sam_custom_messages@@@mwboost@@X@ros@@@mwboost@@QEBAPEAXXZ
	?_internal_get_untyped_deleter@?$shared_ptr@V?$SubscriptionCallbackHelperT@AEBV?$shared_ptr@$$CBU?$diagnostics_@V?$allocator@X@std@@@sam_custom_messages@@@mwboost@@X@ros@@@mwboost@@QEBAPEAXXZ
	?_internal_get_untyped_deleter@?$shared_ptr@V?$SubscriptionCallbackHelperT@AEBV?$shared_ptr@$$CBU?$hand_pos_@V?$allocator@X@std@@@sam_custom_messages@@@mwboost@@X@ros@@@mwboost@@QEBAPEAXXZ
	?_internal_get_untyped_deleter@?$shared_ptr@V?$SubscriptionCallbackHelperT@AEBV?$shared_ptr@$$CBU?$object_state_@V?$allocator@X@std@@@sam_custom_messages@@@mwboost@@X@ros@@@mwboost@@QEBAPEAXXZ
	?_internal_get_untyped_deleter@?$shared_ptr@V?$SubscriptionCallbackHelperT@AEBV?$shared_ptr@$$CBU?$robot_state_@V?$allocator@X@std@@@sam_custom_messages@@@mwboost@@X@ros@@@mwboost@@QEBAPEAXXZ
	?_internal_get_untyped_deleter@?$shared_ptr@V?$SubscriptionCallbackHelperT@AEBV?$shared_ptr@$$CBU?$user_prediction_@V?$allocator@X@std@@@sam_custom_messages@@@mwboost@@X@ros@@@mwboost@@QEBAPEAXXZ
	?adopt@?$refcount_ptr@Uerror_info_container@exception_detail@mwboost@@@exception_detail@mwboost@@QEAAXPEAUerror_info_container@23@@Z
	?allocate@?$allocator@N@std@@QEAAPEAN_K@Z
	?allocate@?$allocator@U?$KeyValue_@V?$allocator@X@std@@@diagnostic_msgs@@@std@@QEAAPEAU?$KeyValue_@V?$allocator@X@std@@@diagnostic_msgs@@_K@Z
	?allocate@?$allocator@U?$_Tree_node@U?$pair@$$CBV?$basic_string@DU?$char_traits@D@std@@V?$allocator@D@2@@std@@PEAVAbstractMetaObjectBase@impl@class_loader@@@std@@PEAX@std@@@std@@QEAAPEAU?$_Tree_node@U?$pair@$$CBV?$basic_string@DU?$char_traits@D@std@@V?$allocator@D@2@@std@@PEAVAbstractMetaObjectBase@impl@class_loader@@@std@@PEAX@2@_K@Z
	?allocate@?$allocator@U?$pair@W4FunctionType@detail@data@matlab@@V?$basic_string@DU?$char_traits@D@std@@V?$allocator@D@2@@std@@@std@@@std@@QEAAPEAU?$pair@W4FunctionType@detail@data@matlab@@V?$basic_string@DU?$char_traits@D@std@@V?$allocator@D@2@@std@@@2@_K@Z
	?allocate@?$allocator@V?$basic_string@DU?$char_traits@D@std@@V?$allocator@D@2@@std@@@std@@QEAAPEAV?$basic_string@DU?$char_traits@D@std@@V?$allocator@D@2@@2@_K@Z
	?allocate@?$allocator@VArray@data@matlab@@@std@@QEAAPEAVArray@data@matlab@@_K@Z
	?allocate@?$allocator@_K@std@@QEAAPEA_K_K@Z
	?append@?$basic_string@DU?$char_traits@D@std@@V?$allocator@D@2@@std@@QEAAAEAV12@AEBV12@@Z
	?append@?$basic_string@DU?$char_traits@D@std@@V?$allocator@D@2@@std@@QEAAAEAV12@QEBD_K@Z
	?append@?$basic_string@DU?$char_traits@D@std@@V?$allocator@D@2@@std@@QEAAAEAV12@_KD@Z
	?appendAndSendToMATLAB@MATLABSubscriberInterface@@UEAAXPEAXP6A_N0AEBV?$vector@VArray@data@matlab@@V?$allocator@VArray@data@matlab@@@std@@@std@@@ZAEAVArray@data@matlab@@@Z
	?assign@?$basic_string@DU?$char_traits@D@std@@V?$allocator@D@2@@std@@QEAAAEAV12@QEBD_K@Z
	?assign@?$basic_string@DU?$char_traits@D@std@@V?$allocator@D@2@@std@@QEAAAEAV12@_KD@Z
	?assign_to_own@?$function0@V?$shared_ptr@U?$Object_@V?$allocator@X@std@@@sam_custom_messages@@@mwboost@@@mwboost@@AEAAXAEBV12@@Z
	?assign_to_own@?$function0@V?$shared_ptr@U?$capability_@V?$allocator@X@std@@@sam_custom_messages@@@mwboost@@@mwboost@@AEAAXAEBV12@@Z
	?assign_to_own@?$function0@V?$shared_ptr@U?$current_action_@V?$allocator@X@std@@@sam_custom_messages@@@mwboost@@@mwboost@@AEAAXAEBV12@@Z
	?assign_to_own@?$function0@V?$shared_ptr@U?$diagnostics_@V?$allocator@X@std@@@sam_custom_messages@@@mwboost@@@mwboost@@AEAAXAEBV12@@Z
	?assign_to_own@?$function0@V?$shared_ptr@U?$hand_pos_@V?$allocator@X@std@@@sam_custom_messages@@@mwboost@@@mwboost@@AEAAXAEBV12@@Z
	?assign_to_own@?$function0@V?$shared_ptr@U?$object_state_@V?$allocator@X@std@@@sam_custom_messages@@@mwboost@@@mwboost@@AEAAXAEBV12@@Z
	?assign_to_own@?$function0@V?$shared_ptr@U?$robot_state_@V?$allocator@X@std@@@sam_custom_messages@@@mwboost@@@mwboost@@AEAAXAEBV12@@Z
	?assign_to_own@?$function0@V?$shared_ptr@U?$user_prediction_@V?$allocator@X@std@@@sam_custom_messages@@@mwboost@@@mwboost@@AEAAXAEBV12@@Z
	?assign_to_own@?$function1@XAEBV?$shared_ptr@$$CBU?$Object_@V?$allocator@X@std@@@sam_custom_messages@@@mwboost@@@mwboost@@AEAAXAEBV12@@Z
	?assign_to_own@?$function1@XAEBV?$shared_ptr@$$CBU?$capability_@V?$allocator@X@std@@@sam_custom_messages@@@mwboost@@@mwboost@@AEAAXAEBV12@@Z
	?assign_to_own@?$function1@XAEBV?$shared_ptr@$$CBU?$current_action_@V?$allocator@X@std@@@sam_custom_messages@@@mwboost@@@mwboost@@AEAAXAEBV12@@Z
	?assign_to_own@?$function1@XAEBV?$shared_ptr@$$CBU?$diagnostics_@V?$allocator@X@std@@@sam_custom_messages@@@mwboost@@@mwboost@@AEAAXAEBV12@@Z
	?assign_to_own@?$function1@XAEBV?$shared_ptr@$$CBU?$hand_pos_@V?$allocator@X@std@@@sam_custom_messages@@@mwboost@@@mwboost@@AEAAXAEBV12@@Z
	?assign_to_own@?$function1@XAEBV?$shared_ptr@$$CBU?$object_state_@V?$allocator@X@std@@@sam_custom_messages@@@mwboost@@@mwboost@@AEAAXAEBV12@@Z
	?assign_to_own@?$function1@XAEBV?$shared_ptr@$$CBU?$robot_state_@V?$allocator@X@std@@@sam_custom_messages@@@mwboost@@@mwboost@@AEAAXAEBV12@@Z
	?assign_to_own@?$function1@XAEBV?$shared_ptr@$$CBU?$user_prediction_@V?$allocator@X@std@@@sam_custom_messages@@@mwboost@@@mwboost@@AEAAXAEBV12@@Z
	?assign_to_own@?$function1@XAEBVSingleSubscriberPublisher@ros@@@mwboost@@AEAAXAEBV12@@Z
	?assign_to_own@?$function1@XV?$shared_ptr@$$CBU?$Object_@V?$allocator@X@std@@@sam_custom_messages@@@mwboost@@@mwboost@@AEAAXAEBV12@@Z
	?assign_to_own@?$function1@XV?$shared_ptr@$$CBU?$capability_@V?$allocator@X@std@@@sam_custom_messages@@@mwboost@@@mwboost@@AEAAXAEBV12@@Z
	?assign_to_own@?$function1@XV?$shared_ptr@$$CBU?$current_action_@V?$allocator@X@std@@@sam_custom_messages@@@mwboost@@@mwboost@@AEAAXAEBV12@@Z
	?assign_to_own@?$function1@XV?$shared_ptr@$$CBU?$diagnostics_@V?$allocator@X@std@@@sam_custom_messages@@@mwboost@@@mwboost@@AEAAXAEBV12@@Z
	?assign_to_own@?$function1@XV?$shared_ptr@$$CBU?$hand_pos_@V?$allocator@X@std@@@sam_custom_messages@@@mwboost@@@mwboost@@AEAAXAEBV12@@Z
	?assign_to_own@?$function1@XV?$shared_ptr@$$CBU?$object_state_@V?$allocator@X@std@@@sam_custom_messages@@@mwboost@@@mwboost@@AEAAXAEBV12@@Z
	?assign_to_own@?$function1@XV?$shared_ptr@$$CBU?$robot_state_@V?$allocator@X@std@@@sam_custom_messages@@@mwboost@@@mwboost@@AEAAXAEBV12@@Z
	?assign_to_own@?$function1@XV?$shared_ptr@$$CBU?$user_prediction_@V?$allocator@X@std@@@sam_custom_messages@@@mwboost@@@mwboost@@AEAAXAEBV12@@Z
	?atomic_fetch_add_explicit@std@@YAHPEAU_Atomic_int@1@HW4memory_order@1@@Z
	?begin@?$TypedArray@N@data@matlab@@QEBA?AV?$TypedIterator@$$CBN@23@XZ
	?begin@?$TypedArray@VStruct@data@matlab@@@data@matlab@@QEBA?AV?$TypedIterator@$$CBVStruct@data@matlab@@@23@XZ
	?begin@?$_Tree@V?$_Tmap_traits@V?$basic_string@DU?$char_traits@D@std@@V?$allocator@D@2@@std@@PEAVAbstractMetaObjectBase@impl@class_loader@@U?$less@V?$basic_string@DU?$char_traits@D@std@@V?$allocator@D@2@@std@@@2@V?$allocator@U?$pair@$$CBV?$basic_string@DU?$char_traits@D@std@@V?$allocator@D@2@@std@@PEAVAbstractMetaObjectBase@impl@class_loader@@@std@@@2@$0A@@std@@@std@@QEAA?AV?$_Tree_iterator@V?$_Tree_val@U?$_Tree_simple_types@U?$pair@$$CBV?$basic_string@DU?$char_traits@D@std@@V?$allocator@D@2@@std@@PEAVAbstractMetaObjectBase@impl@class_loader@@@std@@@std@@@std@@@2@XZ
	?begin@?$basic_string@DU?$char_traits@D@std@@V?$allocator@D@2@@std@@QEBA?AV?$_String_const_iterator@V?$_String_val@U?$_Simple_types@D@std@@@std@@@2@XZ
	?begin@?$vector@NV?$allocator@N@std@@@std@@QEAA?AV?$_Vector_iterator@V?$_Vector_val@U?$_Simple_types@N@std@@@std@@@2@XZ
	?begin@?$vector@NV?$allocator@N@std@@@std@@QEBA?AV?$_Vector_const_iterator@V?$_Vector_val@U?$_Simple_types@N@std@@@std@@@2@XZ
	?begin@?$vector@U?$KeyValue_@V?$allocator@X@std@@@diagnostic_msgs@@V?$allocator@U?$KeyValue_@V?$allocator@X@std@@@diagnostic_msgs@@@std@@@std@@QEAA?AV?$_Vector_iterator@V?$_Vector_val@U?$_Simple_types@U?$KeyValue_@V?$allocator@X@std@@@diagnostic_msgs@@@std@@@std@@@2@XZ
	?begin@?$vector@U?$KeyValue_@V?$allocator@X@std@@@diagnostic_msgs@@V?$allocator@U?$KeyValue_@V?$allocator@X@std@@@diagnostic_msgs@@@std@@@std@@QEBA?AV?$_Vector_const_iterator@V?$_Vector_val@U?$_Simple_types@U?$KeyValue_@V?$allocator@X@std@@@diagnostic_msgs@@@std@@@std@@@2@XZ
	?begin@?$vector@V?$basic_string@DU?$char_traits@D@std@@V?$allocator@D@2@@std@@V?$allocator@V?$basic_string@DU?$char_traits@D@std@@V?$allocator@D@2@@std@@@2@@std@@QEAA?AV?$_Vector_iterator@V?$_Vector_val@U?$_Simple_types@V?$basic_string@DU?$char_traits@D@std@@V?$allocator@D@2@@std@@@std@@@std@@@2@XZ
	?begin@?$vector@V?$basic_string@DU?$char_traits@D@std@@V?$allocator@D@2@@std@@V?$allocator@V?$basic_string@DU?$char_traits@D@std@@V?$allocator@D@2@@std@@@2@@std@@QEBA?AV?$_Vector_const_iterator@V?$_Vector_val@U?$_Simple_types@V?$basic_string@DU?$char_traits@D@std@@V?$allocator@D@2@@std@@@std@@@std@@@2@XZ
	?c_str@?$basic_string@DU?$char_traits@D@std@@V?$allocator@D@2@@std@@QEBAPEBDXZ
	?call@?$SubscriptionCallbackHelperT@AEBV?$shared_ptr@$$CBU?$Object_@V?$allocator@X@std@@@sam_custom_messages@@@mwboost@@X@ros@@UEAAXAEAUSubscriptionCallbackHelperCallParams@2@@Z
	?call@?$SubscriptionCallbackHelperT@AEBV?$shared_ptr@$$CBU?$capability_@V?$allocator@X@std@@@sam_custom_messages@@@mwboost@@X@ros@@UEAAXAEAUSubscriptionCallbackHelperCallParams@2@@Z
	?call@?$SubscriptionCallbackHelperT@AEBV?$shared_ptr@$$CBU?$current_action_@V?$allocator@X@std@@@sam_custom_messages@@@mwboost@@X@ros@@UEAAXAEAUSubscriptionCallbackHelperCallParams@2@@Z
	?call@?$SubscriptionCallbackHelperT@AEBV?$shared_ptr@$$CBU?$diagnostics_@V?$allocator@X@std@@@sam_custom_messages@@@mwboost@@X@ros@@UEAAXAEAUSubscriptionCallbackHelperCallParams@2@@Z
	?call@?$SubscriptionCallbackHelperT@AEBV?$shared_ptr@$$CBU?$hand_pos_@V?$allocator@X@std@@@sam_custom_messages@@@mwboost@@X@ros@@UEAAXAEAUSubscriptionCallbackHelperCallParams@2@@Z
	?call@?$SubscriptionCallbackHelperT@AEBV?$shared_ptr@$$CBU?$object_state_@V?$allocator@X@std@@@sam_custom_messages@@@mwboost@@X@ros@@UEAAXAEAUSubscriptionCallbackHelperCallParams@2@@Z
	?call@?$SubscriptionCallbackHelperT@AEBV?$shared_ptr@$$CBU?$robot_state_@V?$allocator@X@std@@@sam_custom_messages@@@mwboost@@X@ros@@UEAAXAEAUSubscriptionCallbackHelperCallParams@2@@Z
	?call@?$SubscriptionCallbackHelperT@AEBV?$shared_ptr@$$CBU?$user_prediction_@V?$allocator@X@std@@@sam_custom_messages@@@mwboost@@X@ros@@UEAAXAEAUSubscriptionCallbackHelperCallParams@2@@Z
	?callback@sam_custom_messages_msg_Object_subscriber@@QEAAXAEBV?$shared_ptr@$$CBU?$Object_@V?$allocator@X@std@@@sam_custom_messages@@@mwboost@@@Z
	?callback@sam_custom_messages_msg_capability_subscriber@@QEAAXAEBV?$shared_ptr@$$CBU?$capability_@V?$allocator@X@std@@@sam_custom_messages@@@mwboost@@@Z
	?callback@sam_custom_messages_msg_current_action_subscriber@@QEAAXAEBV?$shared_ptr@$$CBU?$current_action_@V?$allocator@X@std@@@sam_custom_messages@@@mwboost@@@Z
	?callback@sam_custom_messages_msg_diagnostics_subscriber@@QEAAXAEBV?$shared_ptr@$$CBU?$diagnostics_@V?$allocator@X@std@@@sam_custom_messages@@@mwboost@@@Z
	?callback@sam_custom_messages_msg_hand_pos_subscriber@@QEAAXAEBV?$shared_ptr@$$CBU?$hand_pos_@V?$allocator@X@std@@@sam_custom_messages@@@mwboost@@@Z
	?callback@sam_custom_messages_msg_object_state_subscriber@@QEAAXAEBV?$shared_ptr@$$CBU?$object_state_@V?$allocator@X@std@@@sam_custom_messages@@@mwboost@@@Z
	?callback@sam_custom_messages_msg_robot_state_subscriber@@QEAAXAEBV?$shared_ptr@$$CBU?$robot_state_@V?$allocator@X@std@@@sam_custom_messages@@@mwboost@@@Z
	?callback@sam_custom_messages_msg_user_prediction_subscriber@@QEAAXAEBV?$shared_ptr@$$CBU?$user_prediction_@V?$allocator@X@std@@@sam_custom_messages@@@mwboost@@@Z
	?capacity@?$vector@NV?$allocator@N@std@@@std@@QEBA_KXZ
	?capacity@?$vector@U?$KeyValue_@V?$allocator@X@std@@@diagnostic_msgs@@V?$allocator@U?$KeyValue_@V?$allocator@X@std@@@diagnostic_msgs@@@std@@@std@@QEBA_KXZ
	?capacity@?$vector@V?$basic_string@DU?$char_traits@D@std@@V?$allocator@D@2@@std@@V?$allocator@V?$basic_string@DU?$char_traits@D@std@@V?$allocator@D@2@@std@@@2@@std@@QEBA_KXZ
	?clear@?$function0@V?$shared_ptr@U?$Object_@V?$allocator@X@std@@@sam_custom_messages@@@mwboost@@@mwboost@@QEAAXXZ
	?clear@?$function0@V?$shared_ptr@U?$capability_@V?$allocator@X@std@@@sam_custom_messages@@@mwboost@@@mwboost@@QEAAXXZ
	?clear@?$function0@V?$shared_ptr@U?$current_action_@V?$allocator@X@std@@@sam_custom_messages@@@mwboost@@@mwboost@@QEAAXXZ
	?clear@?$function0@V?$shared_ptr@U?$diagnostics_@V?$allocator@X@std@@@sam_custom_messages@@@mwboost@@@mwboost@@QEAAXXZ
	?clear@?$function0@V?$shared_ptr@U?$hand_pos_@V?$allocator@X@std@@@sam_custom_messages@@@mwboost@@@mwboost@@QEAAXXZ
	?clear@?$function0@V?$shared_ptr@U?$object_state_@V?$allocator@X@std@@@sam_custom_messages@@@mwboost@@@mwboost@@QEAAXXZ
	?clear@?$function0@V?$shared_ptr@U?$robot_state_@V?$allocator@X@std@@@sam_custom_messages@@@mwboost@@@mwboost@@QEAAXXZ
	?clear@?$function0@V?$shared_ptr@U?$user_prediction_@V?$allocator@X@std@@@sam_custom_messages@@@mwboost@@@mwboost@@QEAAXXZ
	?clear@?$function0@VSerializedMessage@ros@@@mwboost@@QEAAXXZ
	?clear@?$function1@XAEBV?$shared_ptr@$$CBU?$Object_@V?$allocator@X@std@@@sam_custom_messages@@@mwboost@@@mwboost@@QEAAXXZ
	?clear@?$function1@XAEBV?$shared_ptr@$$CBU?$capability_@V?$allocator@X@std@@@sam_custom_messages@@@mwboost@@@mwboost@@QEAAXXZ
	?clear@?$function1@XAEBV?$shared_ptr@$$CBU?$current_action_@V?$allocator@X@std@@@sam_custom_messages@@@mwboost@@@mwboost@@QEAAXXZ
	?clear@?$function1@XAEBV?$shared_ptr@$$CBU?$diagnostics_@V?$allocator@X@std@@@sam_custom_messages@@@mwboost@@@mwboost@@QEAAXXZ
	?clear@?$function1@XAEBV?$shared_ptr@$$CBU?$hand_pos_@V?$allocator@X@std@@@sam_custom_messages@@@mwboost@@@mwboost@@QEAAXXZ
	?clear@?$function1@XAEBV?$shared_ptr@$$CBU?$object_state_@V?$allocator@X@std@@@sam_custom_messages@@@mwboost@@@mwboost@@QEAAXXZ
	?clear@?$function1@XAEBV?$shared_ptr@$$CBU?$robot_state_@V?$allocator@X@std@@@sam_custom_messages@@@mwboost@@@mwboost@@QEAAXXZ
	?clear@?$function1@XAEBV?$shared_ptr@$$CBU?$user_prediction_@V?$allocator@X@std@@@sam_custom_messages@@@mwboost@@@mwboost@@QEAAXXZ
	?clear@?$function1@XAEBVSingleSubscriberPublisher@ros@@@mwboost@@QEAAXXZ
	?clear@?$function1@XV?$shared_ptr@$$CBU?$Object_@V?$allocator@X@std@@@sam_custom_messages@@@mwboost@@@mwboost@@QEAAXXZ
	?clear@?$function1@XV?$shared_ptr@$$CBU?$capability_@V?$allocator@X@std@@@sam_custom_messages@@@mwboost@@@mwboost@@QEAAXXZ
	?clear@?$function1@XV?$shared_ptr@$$CBU?$current_action_@V?$allocator@X@std@@@sam_custom_messages@@@mwboost@@@mwboost@@QEAAXXZ
	?clear@?$function1@XV?$shared_ptr@$$CBU?$diagnostics_@V?$allocator@X@std@@@sam_custom_messages@@@mwboost@@@mwboost@@QEAAXXZ
	?clear@?$function1@XV?$shared_ptr@$$CBU?$hand_pos_@V?$allocator@X@std@@@sam_custom_messages@@@mwboost@@@mwboost@@QEAAXXZ
	?clear@?$function1@XV?$shared_ptr@$$CBU?$object_state_@V?$allocator@X@std@@@sam_custom_messages@@@mwboost@@@mwboost@@QEAAXXZ
	?clear@?$function1@XV?$shared_ptr@$$CBU?$robot_state_@V?$allocator@X@std@@@sam_custom_messages@@@mwboost@@@mwboost@@QEAAXXZ
	?clear@?$function1@XV?$shared_ptr@$$CBU?$user_prediction_@V?$allocator@X@std@@@sam_custom_messages@@@mwboost@@@mwboost@@QEAAXXZ
	?clear_waiting_and_try_lock@basic_timed_mutex@detail@mwboost@@QEAAXAEAJ@Z
	?clone@?$clone_impl@U?$error_info_injector@Vbad_function_call@mwboost@@@exception_detail@mwboost@@@exception_detail@mwboost@@$0PPPPPPPM@A@EBAPEBVclone_base@23@XZ
	?clone@?$clone_impl@U?$error_info_injector@Vbad_function_call@mwboost@@@exception_detail@mwboost@@@exception_detail@mwboost@@EEBAPEBVclone_base@23@XZ
	?clone@?$clone_impl@U?$error_info_injector@Vthread_resource_error@mwboost@@@exception_detail@mwboost@@@exception_detail@mwboost@@$0PPPPPPPM@A@EBAPEBVclone_base@23@XZ
	?clone@?$clone_impl@U?$error_info_injector@Vthread_resource_error@mwboost@@@exception_detail@mwboost@@@exception_detail@mwboost@@EEBAPEBVclone_base@23@XZ
	?compare@?$basic_string@DU?$char_traits@D@std@@V?$allocator@D@2@@std@@QEBAHAEBV12@@Z
	?copy_boost_exception@exception_detail@mwboost@@YAXPEAVexception@2@PEBV32@@Z
	?copy_from_arr@Object@matlabhelper@sam_custom_messages@@YAXAEAV?$shared_ptr@U?$Object_@V?$allocator@X@std@@@sam_custom_messages@@@mwboost@@VStructArray@data@matlab@@@Z
	?copy_from_arr@capability@matlabhelper@sam_custom_messages@@YAXAEAV?$shared_ptr@U?$capability_@V?$allocator@X@std@@@sam_custom_messages@@@mwboost@@VStructArray@data@matlab@@@Z
	?copy_from_arr@current_action@matlabhelper@sam_custom_messages@@YAXAEAV?$shared_ptr@U?$current_action_@V?$allocator@X@std@@@sam_custom_messages@@@mwboost@@VStructArray@data@matlab@@@Z
	?copy_from_arr@diagnostics@matlabhelper@sam_custom_messages@@YAXAEAV?$shared_ptr@U?$diagnostics_@V?$allocator@X@std@@@sam_custom_messages@@@mwboost@@VStructArray@data@matlab@@@Z
	?copy_from_arr@hand_pos@matlabhelper@sam_custom_messages@@YAXAEAV?$shared_ptr@U?$hand_pos_@V?$allocator@X@std@@@sam_custom_messages@@@mwboost@@VStructArray@data@matlab@@@Z
	?copy_from_arr@object_state@matlabhelper@sam_custom_messages@@YAXAEAV?$shared_ptr@U?$object_state_@V?$allocator@X@std@@@sam_custom_messages@@@mwboost@@VStructArray@data@matlab@@@Z
	?copy_from_arr@robot_state@matlabhelper@sam_custom_messages@@YAXAEAV?$shared_ptr@U?$robot_state_@V?$allocator@X@std@@@sam_custom_messages@@@mwboost@@VStructArray@data@matlab@@@Z
	?copy_from_arr@user_prediction@matlabhelper@sam_custom_messages@@YAXAEAV?$shared_ptr@U?$user_prediction_@V?$allocator@X@std@@@sam_custom_messages@@@mwboost@@VStructArray@data@matlab@@@Z
	?copy_from_arr_diagnostic_msgs_DiagnosticStatus@diagnostics@matlabhelper@sam_custom_messages@@YAXAEAU?$DiagnosticStatus_@V?$allocator@X@std@@@diagnostic_msgs@@AEBVStructArray@data@matlab@@@Z
	?copy_from_arr_diagnostic_msgs_KeyValue_var_arr@diagnostics@matlabhelper@sam_custom_messages@@YAXAEAU?$KeyValue_@V?$allocator@X@std@@@diagnostic_msgs@@AEBVStruct@data@matlab@@@Z
	?copy_from_arr_geometry_msgs_Point@capability@matlabhelper@sam_custom_messages@@YAXAEAU?$Point_@V?$allocator@X@std@@@geometry_msgs@@AEBVStructArray@data@matlab@@@Z
	?copy_from_arr_geometry_msgs_Point@hand_pos@matlabhelper@sam_custom_messages@@YAXAEAU?$Point_@V?$allocator@X@std@@@geometry_msgs@@AEBVStructArray@data@matlab@@@Z
	?copy_from_arr_geometry_msgs_Point@object_state@matlabhelper@sam_custom_messages@@YAXAEAU?$Point_@V?$allocator@X@std@@@geometry_msgs@@AEBVStructArray@data@matlab@@@Z
	?copy_from_arr_geometry_msgs_Point@robot_state@matlabhelper@sam_custom_messages@@YAXAEAU?$Point_@V?$allocator@X@std@@@geometry_msgs@@AEBVStructArray@data@matlab@@@Z
	?copy_from_arr_geometry_msgs_Pose@capability@matlabhelper@sam_custom_messages@@YAXAEAU?$Pose_@V?$allocator@X@std@@@geometry_msgs@@AEBVStructArray@data@matlab@@@Z
	?copy_from_arr_geometry_msgs_Pose@hand_pos@matlabhelper@sam_custom_messages@@YAXAEAU?$Pose_@V?$allocator@X@std@@@geometry_msgs@@AEBVStructArray@data@matlab@@@Z
	?copy_from_arr_geometry_msgs_Pose@object_state@matlabhelper@sam_custom_messages@@YAXAEAU?$Pose_@V?$allocator@X@std@@@geometry_msgs@@AEBVStructArray@data@matlab@@@Z
	?copy_from_arr_geometry_msgs_Pose@robot_state@matlabhelper@sam_custom_messages@@YAXAEAU?$Pose_@V?$allocator@X@std@@@geometry_msgs@@AEBVStructArray@data@matlab@@@Z
	?copy_from_arr_geometry_msgs_Quaternion@capability@matlabhelper@sam_custom_messages@@YAXAEAU?$Quaternion_@V?$allocator@X@std@@@geometry_msgs@@AEBVStructArray@data@matlab@@@Z
	?copy_from_arr_geometry_msgs_Quaternion@hand_pos@matlabhelper@sam_custom_messages@@YAXAEAU?$Quaternion_@V?$allocator@X@std@@@geometry_msgs@@AEBVStructArray@data@matlab@@@Z
	?copy_from_arr_geometry_msgs_Quaternion@object_state@matlabhelper@sam_custom_messages@@YAXAEAU?$Quaternion_@V?$allocator@X@std@@@geometry_msgs@@AEBVStructArray@data@matlab@@@Z
	?copy_from_arr_geometry_msgs_Quaternion@robot_state@matlabhelper@sam_custom_messages@@YAXAEAU?$Quaternion_@V?$allocator@X@std@@@geometry_msgs@@AEBVStructArray@data@matlab@@@Z
	?copy_from_arr_ros_Time@capability@matlabhelper@sam_custom_messages@@YAXAEAVTime@ros@@AEBVStructArray@data@matlab@@@Z
	?copy_from_arr_ros_Time@current_action@matlabhelper@sam_custom_messages@@YAXAEAVTime@ros@@AEBVStructArray@data@matlab@@@Z
	?copy_from_arr_ros_Time@diagnostics@matlabhelper@sam_custom_messages@@YAXAEAVTime@ros@@AEBVStructArray@data@matlab@@@Z
	?copy_from_arr_ros_Time@hand_pos@matlabhelper@sam_custom_messages@@YAXAEAVTime@ros@@AEBVStructArray@data@matlab@@@Z
	?copy_from_arr_ros_Time@object_state@matlabhelper@sam_custom_messages@@YAXAEAVTime@ros@@AEBVStructArray@data@matlab@@@Z
	?copy_from_arr_ros_Time@robot_state@matlabhelper@sam_custom_messages@@YAXAEAVTime@ros@@AEBVStructArray@data@matlab@@@Z
	?copy_from_arr_ros_Time@user_prediction@matlabhelper@sam_custom_messages@@YAXAEAVTime@ros@@AEBVStructArray@data@matlab@@@Z
	?copy_from_arr_sam_custom_messages_Object@capability@matlabhelper@sam_custom_messages@@YAXAEAU?$Object_@V?$allocator@X@std@@@3@AEBVStructArray@data@matlab@@@Z
	?copy_from_arr_sam_custom_messages_Object@object_state@matlabhelper@sam_custom_messages@@YAXAEAU?$Object_@V?$allocator@X@std@@@3@AEBVStructArray@data@matlab@@@Z
	?copy_from_arr_sensor_msgs_JointState@robot_state@matlabhelper@sam_custom_messages@@YAXAEAU?$JointState_@V?$allocator@X@std@@@sensor_msgs@@AEBVStructArray@data@matlab@@@Z
	?copy_from_arr_std_msgs_Header@capability@matlabhelper@sam_custom_messages@@YAXAEAU?$Header_@V?$allocator@X@std@@@std_msgs@@AEBVStructArray@data@matlab@@@Z
	?copy_from_arr_std_msgs_Header@current_action@matlabhelper@sam_custom_messages@@YAXAEAU?$Header_@V?$allocator@X@std@@@std_msgs@@AEBVStructArray@data@matlab@@@Z
	?copy_from_arr_std_msgs_Header@diagnostics@matlabhelper@sam_custom_messages@@YAXAEAU?$Header_@V?$allocator@X@std@@@std_msgs@@AEBVStructArray@data@matlab@@@Z
	?copy_from_arr_std_msgs_Header@hand_pos@matlabhelper@sam_custom_messages@@YAXAEAU?$Header_@V?$allocator@X@std@@@std_msgs@@AEBVStructArray@data@matlab@@@Z
	?copy_from_arr_std_msgs_Header@object_state@matlabhelper@sam_custom_messages@@YAXAEAU?$Header_@V?$allocator@X@std@@@std_msgs@@AEBVStructArray@data@matlab@@@Z
	?copy_from_arr_std_msgs_Header@robot_state@matlabhelper@sam_custom_messages@@YAXAEAU?$Header_@V?$allocator@X@std@@@std_msgs@@AEBVStructArray@data@matlab@@@Z
	?copy_from_arr_std_msgs_Header@user_prediction@matlabhelper@sam_custom_messages@@YAXAEAU?$Header_@V?$allocator@X@std@@@std_msgs@@AEBVStructArray@data@matlab@@@Z
	?create@?$MetaObject@Vsam_custom_messages_msg_Object_publisher@@VMATLABPublisherInterface@@@impl@class_loader@@UEBAPEAVMATLABPublisherInterface@@XZ
	?create@?$MetaObject@Vsam_custom_messages_msg_Object_subscriber@@VMATLABSubscriberInterface@@@impl@class_loader@@UEBAPEAVMATLABSubscriberInterface@@XZ
	?create@?$MetaObject@Vsam_custom_messages_msg_capability_publisher@@VMATLABPublisherInterface@@@impl@class_loader@@UEBAPEAVMATLABPublisherInterface@@XZ
	?create@?$MetaObject@Vsam_custom_messages_msg_capability_subscriber@@VMATLABSubscriberInterface@@@impl@class_loader@@UEBAPEAVMATLABSubscriberInterface@@XZ
	?create@?$MetaObject@Vsam_custom_messages_msg_current_action_publisher@@VMATLABPublisherInterface@@@impl@class_loader@@UEBAPEAVMATLABPublisherInterface@@XZ
	?create@?$MetaObject@Vsam_custom_messages_msg_current_action_subscriber@@VMATLABSubscriberInterface@@@impl@class_loader@@UEBAPEAVMATLABSubscriberInterface@@XZ
	?create@?$MetaObject@Vsam_custom_messages_msg_diagnostics_publisher@@VMATLABPublisherInterface@@@impl@class_loader@@UEBAPEAVMATLABPublisherInterface@@XZ
	?create@?$MetaObject@Vsam_custom_messages_msg_diagnostics_subscriber@@VMATLABSubscriberInterface@@@impl@class_loader@@UEBAPEAVMATLABSubscriberInterface@@XZ
	?create@?$MetaObject@Vsam_custom_messages_msg_hand_pos_publisher@@VMATLABPublisherInterface@@@impl@class_loader@@UEBAPEAVMATLABPublisherInterface@@XZ
	?create@?$MetaObject@Vsam_custom_messages_msg_hand_pos_subscriber@@VMATLABSubscriberInterface@@@impl@class_loader@@UEBAPEAVMATLABSubscriberInterface@@XZ
	?create@?$MetaObject@Vsam_custom_messages_msg_object_state_publisher@@VMATLABPublisherInterface@@@impl@class_loader@@UEBAPEAVMATLABPublisherInterface@@XZ
	?create@?$MetaObject@Vsam_custom_messages_msg_object_state_subscriber@@VMATLABSubscriberInterface@@@impl@class_loader@@UEBAPEAVMATLABSubscriberInterface@@XZ
	?create@?$MetaObject@Vsam_custom_messages_msg_robot_state_publisher@@VMATLABPublisherInterface@@@impl@class_loader@@UEBAPEAVMATLABPublisherInterface@@XZ
	?create@?$MetaObject@Vsam_custom_messages_msg_robot_state_subscriber@@VMATLABSubscriberInterface@@@impl@class_loader@@UEBAPEAVMATLABSubscriberInterface@@XZ
	?create@?$MetaObject@Vsam_custom_messages_msg_user_prediction_publisher@@VMATLABPublisherInterface@@@impl@class_loader@@UEBAPEAVMATLABPublisherInterface@@XZ
	?create@?$MetaObject@Vsam_custom_messages_msg_user_prediction_subscriber@@VMATLABSubscriberInterface@@@impl@class_loader@@UEBAPEAVMATLABSubscriberInterface@@XZ
	?createCellArray@ArrayFactory@data@matlab@@QEAA?AV?$TypedArray@VArray@data@matlab@@@23@V?$vector@_KV?$allocator@_K@std@@@std@@@Z
	?createCharArray@ArrayFactory@data@matlab@@QEAA?AVCharArray@23@AEBV?$basic_string@DU?$char_traits@D@std@@V?$allocator@D@2@@std@@@Z
	?createPublisher@MATLABPublisherInterface@@UEAA_JAEBV?$basic_string@DU?$char_traits@D@std@@V?$allocator@D@2@@std@@_NV?$shared_ptr@VNodeHandle@ros@@@3@@Z
	?createPublisher@sam_custom_messages_msg_Object_publisher@@UEAA_JAEBV?$basic_string@DU?$char_traits@D@std@@V?$allocator@D@2@@std@@_NV?$shared_ptr@VNodeHandle@ros@@@3@@Z
	?createPublisher@sam_custom_messages_msg_capability_publisher@@UEAA_JAEBV?$basic_string@DU?$char_traits@D@std@@V?$allocator@D@2@@std@@_NV?$shared_ptr@VNodeHandle@ros@@@3@@Z
	?createPublisher@sam_custom_messages_msg_current_action_publisher@@UEAA_JAEBV?$basic_string@DU?$char_traits@D@std@@V?$allocator@D@2@@std@@_NV?$shared_ptr@VNodeHandle@ros@@@3@@Z
	?createPublisher@sam_custom_messages_msg_diagnostics_publisher@@UEAA_JAEBV?$basic_string@DU?$char_traits@D@std@@V?$allocator@D@2@@std@@_NV?$shared_ptr@VNodeHandle@ros@@@3@@Z
	?createPublisher@sam_custom_messages_msg_hand_pos_publisher@@UEAA_JAEBV?$basic_string@DU?$char_traits@D@std@@V?$allocator@D@2@@std@@_NV?$shared_ptr@VNodeHandle@ros@@@3@@Z
	?createPublisher@sam_custom_messages_msg_object_state_publisher@@UEAA_JAEBV?$basic_string@DU?$char_traits@D@std@@V?$allocator@D@2@@std@@_NV?$shared_ptr@VNodeHandle@ros@@@3@@Z
	?createPublisher@sam_custom_messages_msg_robot_state_publisher@@UEAA_JAEBV?$basic_string@DU?$char_traits@D@std@@V?$allocator@D@2@@std@@_NV?$shared_ptr@VNodeHandle@ros@@@3@@Z
	?createPublisher@sam_custom_messages_msg_user_prediction_publisher@@UEAA_JAEBV?$basic_string@DU?$char_traits@D@std@@V?$allocator@D@2@@std@@_NV?$shared_ptr@VNodeHandle@ros@@@3@@Z
	?createStructArray@ArrayFactory@data@matlab@@QEAA?AVStructArray@23@V?$vector@_KV?$allocator@_K@std@@@std@@V?$vector@V?$basic_string@DU?$char_traits@D@std@@V?$allocator@D@2@@std@@V?$allocator@V?$basic_string@DU?$char_traits@D@std@@V?$allocator@D@2@@std@@@2@@6@@Z
	?createSubscription@MATLABSubscriberInterface@@UEAA_JAEBV?$basic_string@DU?$char_traits@D@std@@V?$allocator@D@2@@std@@V?$shared_ptr@VNodeHandle@ros@@@3@PEAXP6A_N2AEBV?$vector@VArray@data@matlab@@V?$allocator@VArray@data@matlab@@@std@@@3@@ZI@Z
	?createSubscription@sam_custom_messages_msg_Object_subscriber@@UEAA_JAEBV?$basic_string@DU?$char_traits@D@std@@V?$allocator@D@2@@std@@V?$shared_ptr@VNodeHandle@ros@@@3@PEAXP6A_N2AEBV?$vector@VArray@data@matlab@@V?$allocator@VArray@data@matlab@@@std@@@3@@ZI@Z
	?createSubscription@sam_custom_messages_msg_capability_subscriber@@UEAA_JAEBV?$basic_string@DU?$char_traits@D@std@@V?$allocator@D@2@@std@@V?$shared_ptr@VNodeHandle@ros@@@3@PEAXP6A_N2AEBV?$vector@VArray@data@matlab@@V?$allocator@VArray@data@matlab@@@std@@@3@@ZI@Z
	?createSubscription@sam_custom_messages_msg_current_action_subscriber@@UEAA_JAEBV?$basic_string@DU?$char_traits@D@std@@V?$allocator@D@2@@std@@V?$shared_ptr@VNodeHandle@ros@@@3@PEAXP6A_N2AEBV?$vector@VArray@data@matlab@@V?$allocator@VArray@data@matlab@@@std@@@3@@ZI@Z
	?createSubscription@sam_custom_messages_msg_diagnostics_subscriber@@UEAA_JAEBV?$basic_string@DU?$char_traits@D@std@@V?$allocator@D@2@@std@@V?$shared_ptr@VNodeHandle@ros@@@3@PEAXP6A_N2AEBV?$vector@VArray@data@matlab@@V?$allocator@VArray@data@matlab@@@std@@@3@@ZI@Z
	?createSubscription@sam_custom_messages_msg_hand_pos_subscriber@@UEAA_JAEBV?$basic_string@DU?$char_traits@D@std@@V?$allocator@D@2@@std@@V?$shared_ptr@VNodeHandle@ros@@@3@PEAXP6A_N2AEBV?$vector@VArray@data@matlab@@V?$allocator@VArray@data@matlab@@@std@@@3@@ZI@Z
	?createSubscription@sam_custom_messages_msg_object_state_subscriber@@UEAA_JAEBV?$basic_string@DU?$char_traits@D@std@@V?$allocator@D@2@@std@@V?$shared_ptr@VNodeHandle@ros@@@3@PEAXP6A_N2AEBV?$vector@VArray@data@matlab@@V?$allocator@VArray@data@matlab@@@std@@@3@@ZI@Z
	?createSubscription@sam_custom_messages_msg_robot_state_subscriber@@UEAA_JAEBV?$basic_string@DU?$char_traits@D@std@@V?$allocator@D@2@@std@@V?$shared_ptr@VNodeHandle@ros@@@3@PEAXP6A_N2AEBV?$vector@VArray@data@matlab@@V?$allocator@VArray@data@matlab@@@std@@@3@@ZI@Z
	?createSubscription@sam_custom_messages_msg_user_prediction_subscriber@@UEAA_JAEBV?$basic_string@DU?$char_traits@D@std@@V?$allocator@D@2@@std@@V?$shared_ptr@VNodeHandle@ros@@@3@PEAXP6A_N2AEBV?$vector@VArray@data@matlab@@V?$allocator@VArray@data@matlab@@@std@@@3@@ZI@Z
	?create_anonymous_event@win32@detail@mwboost@@YAPEAXW4event_type@123@W4initial_event_state@123@@Z
	?deallocate@?$allocator@N@std@@QEAAXQEAN_K@Z
	?deallocate@?$allocator@U?$KeyValue_@V?$allocator@X@std@@@diagnostic_msgs@@@std@@QEAAXQEAU?$KeyValue_@V?$allocator@X@std@@@diagnostic_msgs@@_K@Z
	?deallocate@?$allocator@U?$_Tree_node@U?$pair@$$CBV?$basic_string@DU?$char_traits@D@std@@V?$allocator@D@2@@std@@PEAVAbstractMetaObjectBase@impl@class_loader@@@std@@PEAX@std@@@std@@QEAAXQEAU?$_Tree_node@U?$pair@$$CBV?$basic_string@DU?$char_traits@D@std@@V?$allocator@D@2@@std@@PEAVAbstractMetaObjectBase@impl@class_loader@@@std@@PEAX@2@_K@Z
	?deallocate@?$allocator@V?$basic_string@DU?$char_traits@D@std@@V?$allocator@D@2@@std@@@std@@QEAAXQEAV?$basic_string@DU?$char_traits@D@std@@V?$allocator@D@2@@2@_K@Z
	?default_error_condition@error_category@system@mwboost@@UEBA?AVerror_condition@23@H@Z
	?default_error_condition@system_error_category@detail@system@mwboost@@UEBA?AVerror_condition@34@H@Z
	?deserialize@?$SubscriptionCallbackHelperT@AEBV?$shared_ptr@$$CBU?$Object_@V?$allocator@X@std@@@sam_custom_messages@@@mwboost@@X@ros@@UEAA?AV?$shared_ptr@$$CBX@mwboost@@AEBUSubscriptionCallbackHelperDeserializeParams@2@@Z
	?deserialize@?$SubscriptionCallbackHelperT@AEBV?$shared_ptr@$$CBU?$capability_@V?$allocator@X@std@@@sam_custom_messages@@@mwboost@@X@ros@@UEAA?AV?$shared_ptr@$$CBX@mwboost@@AEBUSubscriptionCallbackHelperDeserializeParams@2@@Z
	?deserialize@?$SubscriptionCallbackHelperT@AEBV?$shared_ptr@$$CBU?$current_action_@V?$allocator@X@std@@@sam_custom_messages@@@mwboost@@X@ros@@UEAA?AV?$shared_ptr@$$CBX@mwboost@@AEBUSubscriptionCallbackHelperDeserializeParams@2@@Z
	?deserialize@?$SubscriptionCallbackHelperT@AEBV?$shared_ptr@$$CBU?$diagnostics_@V?$allocator@X@std@@@sam_custom_messages@@@mwboost@@X@ros@@UEAA?AV?$shared_ptr@$$CBX@mwboost@@AEBUSubscriptionCallbackHelperDeserializeParams@2@@Z
	?deserialize@?$SubscriptionCallbackHelperT@AEBV?$shared_ptr@$$CBU?$hand_pos_@V?$allocator@X@std@@@sam_custom_messages@@@mwboost@@X@ros@@UEAA?AV?$shared_ptr@$$CBX@mwboost@@AEBUSubscriptionCallbackHelperDeserializeParams@2@@Z
	?deserialize@?$SubscriptionCallbackHelperT@AEBV?$shared_ptr@$$CBU?$object_state_@V?$allocator@X@std@@@sam_custom_messages@@@mwboost@@X@ros@@UEAA?AV?$shared_ptr@$$CBX@mwboost@@AEBUSubscriptionCallbackHelperDeserializeParams@2@@Z
	?deserialize@?$SubscriptionCallbackHelperT@AEBV?$shared_ptr@$$CBU?$robot_state_@V?$allocator@X@std@@@sam_custom_messages@@@mwboost@@X@ros@@UEAA?AV?$shared_ptr@$$CBX@mwboost@@AEBUSubscriptionCallbackHelperDeserializeParams@2@@Z
	?deserialize@?$SubscriptionCallbackHelperT@AEBV?$shared_ptr@$$CBU?$user_prediction_@V?$allocator@X@std@@@sam_custom_messages@@@mwboost@@X@ros@@UEAA?AV?$shared_ptr@$$CBX@mwboost@@AEBUSubscriptionCallbackHelperDeserializeParams@2@@Z
	?destroy@?$sp_ms_deleter@U?$Object_@V?$allocator@X@std@@@sam_custom_messages@@@detail@mwboost@@AEAAXXZ
	?destroy@?$sp_ms_deleter@U?$capability_@V?$allocator@X@std@@@sam_custom_messages@@@detail@mwboost@@AEAAXXZ
	?destroy@?$sp_ms_deleter@U?$current_action_@V?$allocator@X@std@@@sam_custom_messages@@@detail@mwboost@@AEAAXXZ
	?destroy@?$sp_ms_deleter@U?$diagnostics_@V?$allocator@X@std@@@sam_custom_messages@@@detail@mwboost@@AEAAXXZ
	?destroy@?$sp_ms_deleter@U?$hand_pos_@V?$allocator@X@std@@@sam_custom_messages@@@detail@mwboost@@AEAAXXZ
	?destroy@?$sp_ms_deleter@U?$robot_state_@V?$allocator@X@std@@@sam_custom_messages@@@detail@mwboost@@AEAAXXZ
	?destroy@?$sp_ms_deleter@U?$user_prediction_@V?$allocator@X@std@@@sam_custom_messages@@@detail@mwboost@@AEAAXXZ
	?destroy@?$sp_ms_deleter@V?$SubscriptionCallbackHelperT@AEBV?$shared_ptr@$$CBU?$Object_@V?$allocator@X@std@@@sam_custom_messages@@@mwboost@@X@ros@@@detail@mwboost@@AEAAXXZ
	?destroy@?$sp_ms_deleter@V?$SubscriptionCallbackHelperT@AEBV?$shared_ptr@$$CBU?$capability_@V?$allocator@X@std@@@sam_custom_messages@@@mwboost@@X@ros@@@detail@mwboost@@AEAAXXZ
	?destroy@?$sp_ms_deleter@V?$SubscriptionCallbackHelperT@AEBV?$shared_ptr@$$CBU?$current_action_@V?$allocator@X@std@@@sam_custom_messages@@@mwboost@@X@ros@@@detail@mwboost@@AEAAXXZ
	?destroy@?$sp_ms_deleter@V?$SubscriptionCallbackHelperT@AEBV?$shared_ptr@$$CBU?$diagnostics_@V?$allocator@X@std@@@sam_custom_messages@@@mwboost@@X@ros@@@detail@mwboost@@AEAAXXZ
	?destroy@?$sp_ms_deleter@V?$SubscriptionCallbackHelperT@AEBV?$shared_ptr@$$CBU?$hand_pos_@V?$allocator@X@std@@@sam_custom_messages@@@mwboost@@X@ros@@@detail@mwboost@@AEAAXXZ
	?destroy@?$sp_ms_deleter@V?$SubscriptionCallbackHelperT@AEBV?$shared_ptr@$$CBU?$object_state_@V?$allocator@X@std@@@sam_custom_messages@@@mwboost@@X@ros@@@detail@mwboost@@AEAAXXZ
	?destroy@?$sp_ms_deleter@V?$SubscriptionCallbackHelperT@AEBV?$shared_ptr@$$CBU?$robot_state_@V?$allocator@X@std@@@sam_custom_messages@@@mwboost@@X@ros@@@detail@mwboost@@AEAAXXZ
	?destroy@?$sp_ms_deleter@V?$SubscriptionCallbackHelperT@AEBV?$shared_ptr@$$CBU?$user_prediction_@V?$allocator@X@std@@@sam_custom_messages@@@mwboost@@X@ros@@@detail@mwboost@@AEAAXXZ
	?destroy@sp_counted_base@detail@mwboost@@UEAAXXZ
	?dispose@?$sp_counted_impl_pd@PEAEU?$checked_array_deleter@E@mwboost@@@detail@mwboost@@UEAAXXZ
	?dispose@?$sp_counted_impl_pd@PEAU?$Object_@V?$allocator@X@std@@@sam_custom_messages@@V?$sp_ms_deleter@U?$Object_@V?$allocator@X@std@@@sam_custom_messages@@@detail@mwboost@@@detail@mwboost@@UEAAXXZ
	?dispose@?$sp_counted_impl_pd@PEAU?$capability_@V?$allocator@X@std@@@sam_custom_messages@@V?$sp_ms_deleter@U?$capability_@V?$allocator@X@std@@@sam_custom_messages@@@detail@mwboost@@@detail@mwboost@@UEAAXXZ
	?dispose@?$sp_counted_impl_pd@PEAU?$current_action_@V?$allocator@X@std@@@sam_custom_messages@@V?$sp_ms_deleter@U?$current_action_@V?$allocator@X@std@@@sam_custom_messages@@@detail@mwboost@@@detail@mwboost@@UEAAXXZ
	?dispose@?$sp_counted_impl_pd@PEAU?$diagnostics_@V?$allocator@X@std@@@sam_custom_messages@@V?$sp_ms_deleter@U?$diagnostics_@V?$allocator@X@std@@@sam_custom_messages@@@detail@mwboost@@@detail@mwboost@@UEAAXXZ
	?dispose@?$sp_counted_impl_pd@PEAU?$hand_pos_@V?$allocator@X@std@@@sam_custom_messages@@V?$sp_ms_deleter@U?$hand_pos_@V?$allocator@X@std@@@sam_custom_messages@@@detail@mwboost@@@detail@mwboost@@UEAAXXZ
	?dispose@?$sp_counted_impl_pd@PEAU?$object_state_@V?$allocator@X@std@@@sam_custom_messages@@V?$sp_ms_deleter@U?$object_state_@V?$allocator@X@std@@@sam_custom_messages@@@detail@mwboost@@@detail@mwboost@@UEAAXXZ
	?dispose@?$sp_counted_impl_pd@PEAU?$robot_state_@V?$allocator@X@std@@@sam_custom_messages@@V?$sp_ms_deleter@U?$robot_state_@V?$allocator@X@std@@@sam_custom_messages@@@detail@mwboost@@@detail@mwboost@@UEAAXXZ
	?dispose@?$sp_counted_impl_pd@PEAU?$user_prediction_@V?$allocator@X@std@@@sam_custom_messages@@V?$sp_ms_deleter@U?$user_prediction_@V?$allocator@X@std@@@sam_custom_messages@@@detail@mwboost@@@detail@mwboost@@UEAAXXZ
	?dispose@?$sp_counted_impl_pd@PEAV?$SubscriptionCallbackHelperT@AEBV?$shared_ptr@$$CBU?$Object_@V?$allocator@X@std@@@sam_custom_messages@@@mwboost@@X@ros@@V?$sp_ms_deleter@V?$SubscriptionCallbackHelperT@AEBV?$shared_ptr@$$CBU?$Object_@V?$allocator@X@std@@@sam_custom_messages@@@mwboost@@X@ros@@@detail@mwboost@@@detail@mwboost@@UEAAXXZ
	?dispose@?$sp_counted_impl_pd@PEAV?$SubscriptionCallbackHelperT@AEBV?$shared_ptr@$$CBU?$capability_@V?$allocator@X@std@@@sam_custom_messages@@@mwboost@@X@ros@@V?$sp_ms_deleter@V?$SubscriptionCallbackHelperT@AEBV?$shared_ptr@$$CBU?$capability_@V?$allocator@X@std@@@sam_custom_messages@@@mwboost@@X@ros@@@detail@mwboost@@@detail@mwboost@@UEAAXXZ
	?dispose@?$sp_counted_impl_pd@PEAV?$SubscriptionCallbackHelperT@AEBV?$shared_ptr@$$CBU?$current_action_@V?$allocator@X@std@@@sam_custom_messages@@@mwboost@@X@ros@@V?$sp_ms_deleter@V?$SubscriptionCallbackHelperT@AEBV?$shared_ptr@$$CBU?$current_action_@V?$allocator@X@std@@@sam_custom_messages@@@mwboost@@X@ros@@@detail@mwboost@@@detail@mwboost@@UEAAXXZ
	?dispose@?$sp_counted_impl_pd@PEAV?$SubscriptionCallbackHelperT@AEBV?$shared_ptr@$$CBU?$diagnostics_@V?$allocator@X@std@@@sam_custom_messages@@@mwboost@@X@ros@@V?$sp_ms_deleter@V?$SubscriptionCallbackHelperT@AEBV?$shared_ptr@$$CBU?$diagnostics_@V?$allocator@X@std@@@sam_custom_messages@@@mwboost@@X@ros@@@detail@mwboost@@@detail@mwboost@@UEAAXXZ
	?dispose@?$sp_counted_impl_pd@PEAV?$SubscriptionCallbackHelperT@AEBV?$shared_ptr@$$CBU?$hand_pos_@V?$allocator@X@std@@@sam_custom_messages@@@mwboost@@X@ros@@V?$sp_ms_deleter@V?$SubscriptionCallbackHelperT@AEBV?$shared_ptr@$$CBU?$hand_pos_@V?$allocator@X@std@@@sam_custom_messages@@@mwboost@@X@ros@@@detail@mwboost@@@detail@mwboost@@UEAAXXZ
	?dispose@?$sp_counted_impl_pd@PEAV?$SubscriptionCallbackHelperT@AEBV?$shared_ptr@$$CBU?$object_state_@V?$allocator@X@std@@@sam_custom_messages@@@mwboost@@X@ros@@V?$sp_ms_deleter@V?$SubscriptionCallbackHelperT@AEBV?$shared_ptr@$$CBU?$object_state_@V?$allocator@X@std@@@sam_custom_messages@@@mwboost@@X@ros@@@detail@mwboost@@@detail@mwboost@@UEAAXXZ
	?dispose@?$sp_counted_impl_pd@PEAV?$SubscriptionCallbackHelperT@AEBV?$shared_ptr@$$CBU?$robot_state_@V?$allocator@X@std@@@sam_custom_messages@@@mwboost@@X@ros@@V?$sp_ms_deleter@V?$SubscriptionCallbackHelperT@AEBV?$shared_ptr@$$CBU?$robot_state_@V?$allocator@X@std@@@sam_custom_messages@@@mwboost@@X@ros@@@detail@mwboost@@@detail@mwboost@@UEAAXXZ
	?dispose@?$sp_counted_impl_pd@PEAV?$SubscriptionCallbackHelperT@AEBV?$shared_ptr@$$CBU?$user_prediction_@V?$allocator@X@std@@@sam_custom_messages@@@mwboost@@X@ros@@V?$sp_ms_deleter@V?$SubscriptionCallbackHelperT@AEBV?$shared_ptr@$$CBU?$user_prediction_@V?$allocator@X@std@@@sam_custom_messages@@@mwboost@@X@ros@@@detail@mwboost@@@detail@mwboost@@UEAAXXZ
	?empty@?$vector@NV?$allocator@N@std@@@std@@QEBA_NXZ
	?end@?$TypedArray@VStruct@data@matlab@@@data@matlab@@QEBA?AV?$TypedIterator@$$CBVStruct@data@matlab@@@23@XZ
	?end@?$basic_string@DU?$char_traits@D@std@@V?$allocator@D@2@@std@@QEBA?AV?$_String_const_iterator@V?$_String_val@U?$_Simple_types@D@std@@@std@@@2@XZ
	?end@?$vector@NV?$allocator@N@std@@@std@@QEBA?AV?$_Vector_const_iterator@V?$_Vector_val@U?$_Simple_types@N@std@@@std@@@2@XZ
	?end@?$vector@U?$KeyValue_@V?$allocator@X@std@@@diagnostic_msgs@@V?$allocator@U?$KeyValue_@V?$allocator@X@std@@@diagnostic_msgs@@@std@@@std@@QEAA?AV?$_Vector_iterator@V?$_Vector_val@U?$_Simple_types@U?$KeyValue_@V?$allocator@X@std@@@diagnostic_msgs@@@std@@@std@@@2@XZ
	?end@?$vector@U?$KeyValue_@V?$allocator@X@std@@@diagnostic_msgs@@V?$allocator@U?$KeyValue_@V?$allocator@X@std@@@diagnostic_msgs@@@std@@@std@@QEBA?AV?$_Vector_const_iterator@V?$_Vector_val@U?$_Simple_types@U?$KeyValue_@V?$allocator@X@std@@@diagnostic_msgs@@@std@@@std@@@2@XZ
	?end@?$vector@V?$basic_string@DU?$char_traits@D@std@@V?$allocator@D@2@@std@@V?$allocator@V?$basic_string@DU?$char_traits@D@std@@V?$allocator@D@2@@std@@@2@@std@@QEAA?AV?$_Vector_iterator@V?$_Vector_val@U?$_Simple_types@V?$basic_string@DU?$char_traits@D@std@@V?$allocator@D@2@@std@@@std@@@std@@@2@XZ
	?end@?$vector@V?$basic_string@DU?$char_traits@D@std@@V?$allocator@D@2@@std@@V?$allocator@V?$basic_string@DU?$char_traits@D@std@@V?$allocator@D@2@@std@@@2@@std@@QEBA?AV?$_Vector_const_iterator@V?$_Vector_val@U?$_Simple_types@V?$basic_string@DU?$char_traits@D@std@@V?$allocator@D@2@@std@@@std@@@std@@@2@XZ
	?equal@stl_type_index@typeindex@mwboost@@QEBA_NAEBV123@@Z
	?equivalent@error_category@system@mwboost@@UEBA_NAEBVerror_code@23@H@Z
	?equivalent@error_category@system@mwboost@@UEBA_NHAEBVerror_condition@23@@Z
	?failed@error_category@system@mwboost@@UEBA_NH@Z
	?failed_impl@detail@system@mwboost@@YA_NHAEBVerror_category@23@@Z
	?find@?$_Tree@V?$_Tmap_traits@V?$basic_string@DU?$char_traits@D@std@@V?$allocator@D@2@@std@@PEAVAbstractMetaObjectBase@impl@class_loader@@U?$less@V?$basic_string@DU?$char_traits@D@std@@V?$allocator@D@2@@std@@@2@V?$allocator@U?$pair@$$CBV?$basic_string@DU?$char_traits@D@std@@V?$allocator@D@2@@std@@PEAVAbstractMetaObjectBase@impl@class_loader@@@std@@@2@$0A@@std@@@std@@QEAA?AV?$_Tree_iterator@V?$_Tree_val@U?$_Tree_simple_types@U?$pair@$$CBV?$basic_string@DU?$char_traits@D@std@@V?$allocator@D@2@@std@@PEAVAbstractMetaObjectBase@impl@class_loader@@@std@@@std@@@std@@@2@AEBV?$basic_string@DU?$char_traits@D@std@@V?$allocator@D@2@@2@@Z
	?generic_error_category_message@detail@system@mwboost@@YAPEBDHPEAD_K@Z
	?getNumberOfElements@Array@data@matlab@@QEBA_KXZ
	?getType@Array@data@matlab@@QEBA?AW4ArrayType@23@XZ
	?getTypeInfo@?$SubscriptionCallbackHelperT@AEBV?$shared_ptr@$$CBU?$Object_@V?$allocator@X@std@@@sam_custom_messages@@@mwboost@@X@ros@@UEAAAEBVtype_info@@XZ
	?getTypeInfo@?$SubscriptionCallbackHelperT@AEBV?$shared_ptr@$$CBU?$capability_@V?$allocator@X@std@@@sam_custom_messages@@@mwboost@@X@ros@@UEAAAEBVtype_info@@XZ
	?getTypeInfo@?$SubscriptionCallbackHelperT@AEBV?$shared_ptr@$$CBU?$current_action_@V?$allocator@X@std@@@sam_custom_messages@@@mwboost@@X@ros@@UEAAAEBVtype_info@@XZ
	?getTypeInfo@?$SubscriptionCallbackHelperT@AEBV?$shared_ptr@$$CBU?$diagnostics_@V?$allocator@X@std@@@sam_custom_messages@@@mwboost@@X@ros@@UEAAAEBVtype_info@@XZ
	?getTypeInfo@?$SubscriptionCallbackHelperT@AEBV?$shared_ptr@$$CBU?$hand_pos_@V?$allocator@X@std@@@sam_custom_messages@@@mwboost@@X@ros@@UEAAAEBVtype_info@@XZ
	?getTypeInfo@?$SubscriptionCallbackHelperT@AEBV?$shared_ptr@$$CBU?$object_state_@V?$allocator@X@std@@@sam_custom_messages@@@mwboost@@X@ros@@UEAAAEBVtype_info@@XZ
	?getTypeInfo@?$SubscriptionCallbackHelperT@AEBV?$shared_ptr@$$CBU?$robot_state_@V?$allocator@X@std@@@sam_custom_messages@@@mwboost@@X@ros@@UEAAAEBVtype_info@@XZ
	?getTypeInfo@?$SubscriptionCallbackHelperT@AEBV?$shared_ptr@$$CBU?$user_prediction_@V?$allocator@X@std@@@sam_custom_messages@@@mwboost@@X@ros@@UEAAAEBVtype_info@@XZ
	?get_arr@Object@matlabhelper@sam_custom_messages@@YA?AVArray@data@matlab@@AEAVArrayFactory@56@AEBV?$shared_ptr@$$CBU?$Object_@V?$allocator@X@std@@@sam_custom_messages@@@mwboost@@@Z
	?get_arr@capability@matlabhelper@sam_custom_messages@@YA?AVArray@data@matlab@@AEAVArrayFactory@56@AEBV?$shared_ptr@$$CBU?$capability_@V?$allocator@X@std@@@sam_custom_messages@@@mwboost@@@Z
	?get_arr@current_action@matlabhelper@sam_custom_messages@@YA?AVArray@data@matlab@@AEAVArrayFactory@56@AEBV?$shared_ptr@$$CBU?$current_action_@V?$allocator@X@std@@@sam_custom_messages@@@mwboost@@@Z
	?get_arr@diagnostics@matlabhelper@sam_custom_messages@@YA?AVArray@data@matlab@@AEAVArrayFactory@56@AEBV?$shared_ptr@$$CBU?$diagnostics_@V?$allocator@X@std@@@sam_custom_messages@@@mwboost@@@Z
	?get_arr@hand_pos@matlabhelper@sam_custom_messages@@YA?AVArray@data@matlab@@AEAVArrayFactory@56@AEBV?$shared_ptr@$$CBU?$hand_pos_@V?$allocator@X@std@@@sam_custom_messages@@@mwboost@@@Z
	?get_arr@object_state@matlabhelper@sam_custom_messages@@YA?AVArray@data@matlab@@AEAVArrayFactory@56@AEBV?$shared_ptr@$$CBU?$object_state_@V?$allocator@X@std@@@sam_custom_messages@@@mwboost@@@Z
	?get_arr@robot_state@matlabhelper@sam_custom_messages@@YA?AVArray@data@matlab@@AEAVArrayFactory@56@AEBV?$shared_ptr@$$CBU?$robot_state_@V?$allocator@X@std@@@sam_custom_messages@@@mwboost@@@Z
	?get_arr@user_prediction@matlabhelper@sam_custom_messages@@YA?AVArray@data@matlab@@AEAVArrayFactory@56@AEBV?$shared_ptr@$$CBU?$user_prediction_@V?$allocator@X@std@@@sam_custom_messages@@@mwboost@@@Z
	?get_arr_diagnostic_msgs_DiagnosticStatus@diagnostics@matlabhelper@sam_custom_messages@@YA?AVArray@data@matlab@@AEAVArrayFactory@56@AEBU?$DiagnosticStatus_@V?$allocator@X@std@@@diagnostic_msgs@@@Z
	?get_arr_diagnostic_msgs_KeyValue_var_arr@diagnostics@matlabhelper@sam_custom_messages@@YA?AVArray@data@matlab@@AEAVArrayFactory@56@AEBV?$vector@U?$KeyValue_@V?$allocator@X@std@@@diagnostic_msgs@@V?$allocator@U?$KeyValue_@V?$allocator@X@std@@@diagnostic_msgs@@@std@@@std@@@Z
	?get_arr_geometry_msgs_Point@capability@matlabhelper@sam_custom_messages@@YA?AVArray@data@matlab@@AEAVArrayFactory@56@AEBU?$Point_@V?$allocator@X@std@@@geometry_msgs@@@Z
	?get_arr_geometry_msgs_Point@hand_pos@matlabhelper@sam_custom_messages@@YA?AVArray@data@matlab@@AEAVArrayFactory@56@AEBU?$Point_@V?$allocator@X@std@@@geometry_msgs@@@Z
	?get_arr_geometry_msgs_Point@object_state@matlabhelper@sam_custom_messages@@YA?AVArray@data@matlab@@AEAVArrayFactory@56@AEBU?$Point_@V?$allocator@X@std@@@geometry_msgs@@@Z
	?get_arr_geometry_msgs_Point@robot_state@matlabhelper@sam_custom_messages@@YA?AVArray@data@matlab@@AEAVArrayFactory@56@AEBU?$Point_@V?$allocator@X@std@@@geometry_msgs@@@Z
	?get_arr_geometry_msgs_Pose@capability@matlabhelper@sam_custom_messages@@YA?AVArray@data@matlab@@AEAVArrayFactory@56@AEBU?$Pose_@V?$allocator@X@std@@@geometry_msgs@@@Z
	?get_arr_geometry_msgs_Pose@hand_pos@matlabhelper@sam_custom_messages@@YA?AVArray@data@matlab@@AEAVArrayFactory@56@AEBU?$Pose_@V?$allocator@X@std@@@geometry_msgs@@@Z
	?get_arr_geometry_msgs_Pose@object_state@matlabhelper@sam_custom_messages@@YA?AVArray@data@matlab@@AEAVArrayFactory@56@AEBU?$Pose_@V?$allocator@X@std@@@geometry_msgs@@@Z
	?get_arr_geometry_msgs_Pose@robot_state@matlabhelper@sam_custom_messages@@YA?AVArray@data@matlab@@AEAVArrayFactory@56@AEBU?$Pose_@V?$allocator@X@std@@@geometry_msgs@@@Z
	?get_arr_geometry_msgs_Quaternion@capability@matlabhelper@sam_custom_messages@@YA?AVArray@data@matlab@@AEAVArrayFactory@56@AEBU?$Quaternion_@V?$allocator@X@std@@@geometry_msgs@@@Z
	?get_arr_geometry_msgs_Quaternion@hand_pos@matlabhelper@sam_custom_messages@@YA?AVArray@data@matlab@@AEAVArrayFactory@56@AEBU?$Quaternion_@V?$allocator@X@std@@@geometry_msgs@@@Z
	?get_arr_geometry_msgs_Quaternion@object_state@matlabhelper@sam_custom_messages@@YA?AVArray@data@matlab@@AEAVArrayFactory@56@AEBU?$Quaternion_@V?$allocator@X@std@@@geometry_msgs@@@Z
	?get_arr_geometry_msgs_Quaternion@robot_state@matlabhelper@sam_custom_messages@@YA?AVArray@data@matlab@@AEAVArrayFactory@56@AEBU?$Quaternion_@V?$allocator@X@std@@@geometry_msgs@@@Z
	?get_arr_ros_Time@capability@matlabhelper@sam_custom_messages@@YA?AVArray@data@matlab@@AEAVArrayFactory@56@AEBVTime@ros@@@Z
	?get_arr_ros_Time@current_action@matlabhelper@sam_custom_messages@@YA?AVArray@data@matlab@@AEAVArrayFactory@56@AEBVTime@ros@@@Z
	?get_arr_ros_Time@diagnostics@matlabhelper@sam_custom_messages@@YA?AVArray@data@matlab@@AEAVArrayFactory@56@AEBVTime@ros@@@Z
	?get_arr_ros_Time@hand_pos@matlabhelper@sam_custom_messages@@YA?AVArray@data@matlab@@AEAVArrayFactory@56@AEBVTime@ros@@@Z
	?get_arr_ros_Time@object_state@matlabhelper@sam_custom_messages@@YA?AVArray@data@matlab@@AEAVArrayFactory@56@AEBVTime@ros@@@Z
	?get_arr_ros_Time@robot_state@matlabhelper@sam_custom_messages@@YA?AVArray@data@matlab@@AEAVArrayFactory@56@AEBVTime@ros@@@Z
	?get_arr_ros_Time@user_prediction@matlabhelper@sam_custom_messages@@YA?AVArray@data@matlab@@AEAVArrayFactory@56@AEBVTime@ros@@@Z
	?get_arr_sam_custom_messages_Object@capability@matlabhelper@sam_custom_messages@@YA?AVArray@data@matlab@@AEAVArrayFactory@56@AEBU?$Object_@V?$allocator@X@std@@@3@@Z
	?get_arr_sam_custom_messages_Object@object_state@matlabhelper@sam_custom_messages@@YA?AVArray@data@matlab@@AEAVArrayFactory@56@AEBU?$Object_@V?$allocator@X@std@@@3@@Z
	?get_arr_sensor_msgs_JointState@robot_state@matlabhelper@sam_custom_messages@@YA?AVArray@data@matlab@@AEAVArrayFactory@56@AEBU?$JointState_@V?$allocator@X@std@@@sensor_msgs@@@Z
	?get_arr_std_msgs_Header@capability@matlabhelper@sam_custom_messages@@YA?AVArray@data@matlab@@AEAVArrayFactory@56@AEBU?$Header_@V?$allocator@X@std@@@std_msgs@@@Z
	?get_arr_std_msgs_Header@current_action@matlabhelper@sam_custom_messages@@YA?AVArray@data@matlab@@AEAVArrayFactory@56@AEBU?$Header_@V?$allocator@X@std@@@std_msgs@@@Z
	?get_arr_std_msgs_Header@diagnostics@matlabhelper@sam_custom_messages@@YA?AVArray@data@matlab@@AEAVArrayFactory@56@AEBU?$Header_@V?$allocator@X@std@@@std_msgs@@@Z
	?get_arr_std_msgs_Header@hand_pos@matlabhelper@sam_custom_messages@@YA?AVArray@data@matlab@@AEAVArrayFactory@56@AEBU?$Header_@V?$allocator@X@std@@@std_msgs@@@Z
	?get_arr_std_msgs_Header@object_state@matlabhelper@sam_custom_messages@@YA?AVArray@data@matlab@@AEAVArrayFactory@56@AEBU?$Header_@V?$allocator@X@std@@@std_msgs@@@Z
	?get_arr_std_msgs_Header@robot_state@matlabhelper@sam_custom_messages@@YA?AVArray@data@matlab@@AEAVArrayFactory@56@AEBU?$Header_@V?$allocator@X@std@@@std_msgs@@@Z
	?get_arr_std_msgs_Header@user_prediction@matlabhelper@sam_custom_messages@@YA?AVArray@data@matlab@@AEAVArrayFactory@56@AEBU?$Header_@V?$allocator@X@std@@@std_msgs@@@Z
	?get_deleter@?$sp_counted_impl_pd@PEAEU?$checked_array_deleter@E@mwboost@@@detail@mwboost@@UEAAPEAXAEBVtype_info@@@Z
	?get_deleter@?$sp_counted_impl_pd@PEAU?$Object_@V?$allocator@X@std@@@sam_custom_messages@@V?$sp_ms_deleter@U?$Object_@V?$allocator@X@std@@@sam_custom_messages@@@detail@mwboost@@@detail@mwboost@@UEAAPEAXAEBVtype_info@@@Z
	?get_deleter@?$sp_counted_impl_pd@PEAU?$capability_@V?$allocator@X@std@@@sam_custom_messages@@V?$sp_ms_deleter@U?$capability_@V?$allocator@X@std@@@sam_custom_messages@@@detail@mwboost@@@detail@mwboost@@UEAAPEAXAEBVtype_info@@@Z
	?get_deleter@?$sp_counted_impl_pd@PEAU?$current_action_@V?$allocator@X@std@@@sam_custom_messages@@V?$sp_ms_deleter@U?$current_action_@V?$allocator@X@std@@@sam_custom_messages@@@detail@mwboost@@@detail@mwboost@@UEAAPEAXAEBVtype_info@@@Z
	?get_deleter@?$sp_counted_impl_pd@PEAU?$diagnostics_@V?$allocator@X@std@@@sam_custom_messages@@V?$sp_ms_deleter@U?$diagnostics_@V?$allocator@X@std@@@sam_custom_messages@@@detail@mwboost@@@detail@mwboost@@UEAAPEAXAEBVtype_info@@@Z
	?get_deleter@?$sp_counted_impl_pd@PEAU?$hand_pos_@V?$allocator@X@std@@@sam_custom_messages@@V?$sp_ms_deleter@U?$hand_pos_@V?$allocator@X@std@@@sam_custom_messages@@@detail@mwboost@@@detail@mwboost@@UEAAPEAXAEBVtype_info@@@Z
	?get_deleter@?$sp_counted_impl_pd@PEAU?$object_state_@V?$allocator@X@std@@@sam_custom_messages@@V?$sp_ms_deleter@U?$object_state_@V?$allocator@X@std@@@sam_custom_messages@@@detail@mwboost@@@detail@mwboost@@UEAAPEAXAEBVtype_info@@@Z
	?get_deleter@?$sp_counted_impl_pd@PEAU?$robot_state_@V?$allocator@X@std@@@sam_custom_messages@@V?$sp_ms_deleter@U?$robot_state_@V?$allocator@X@std@@@sam_custom_messages@@@detail@mwboost@@@detail@mwboost@@UEAAPEAXAEBVtype_info@@@Z
	?get_deleter@?$sp_counted_impl_pd@PEAU?$user_prediction_@V?$allocator@X@std@@@sam_custom_messages@@V?$sp_ms_deleter@U?$user_prediction_@V?$allocator@X@std@@@sam_custom_messages@@@detail@mwboost@@@detail@mwboost@@UEAAPEAXAEBVtype_info@@@Z
	?get_deleter@?$sp_counted_impl_pd@PEAV?$SubscriptionCallbackHelperT@AEBV?$shared_ptr@$$CBU?$Object_@V?$allocator@X@std@@@sam_custom_messages@@@mwboost@@X@ros@@V?$sp_ms_deleter@V?$SubscriptionCallbackHelperT@AEBV?$shared_ptr@$$CBU?$Object_@V?$allocator@X@std@@@sam_custom_messages@@@mwboost@@X@ros@@@detail@mwboost@@@detail@mwboost@@UEAAPEAXAEBVtype_info@@@Z
	?get_deleter@?$sp_counted_impl_pd@PEAV?$SubscriptionCallbackHelperT@AEBV?$shared_ptr@$$CBU?$capability_@V?$allocator@X@std@@@sam_custom_messages@@@mwboost@@X@ros@@V?$sp_ms_deleter@V?$SubscriptionCallbackHelperT@AEBV?$shared_ptr@$$CBU?$capability_@V?$allocator@X@std@@@sam_custom_messages@@@mwboost@@X@ros@@@detail@mwboost@@@detail@mwboost@@UEAAPEAXAEBVtype_info@@@Z
	?get_deleter@?$sp_counted_impl_pd@PEAV?$SubscriptionCallbackHelperT@AEBV?$shared_ptr@$$CBU?$current_action_@V?$allocator@X@std@@@sam_custom_messages@@@mwboost@@X@ros@@V?$sp_ms_deleter@V?$SubscriptionCallbackHelperT@AEBV?$shared_ptr@$$CBU?$current_action_@V?$allocator@X@std@@@sam_custom_messages@@@mwboost@@X@ros@@@detail@mwboost@@@detail@mwboost@@UEAAPEAXAEBVtype_info@@@Z
	?get_deleter@?$sp_counted_impl_pd@PEAV?$SubscriptionCallbackHelperT@AEBV?$shared_ptr@$$CBU?$diagnostics_@V?$allocator@X@std@@@sam_custom_messages@@@mwboost@@X@ros@@V?$sp_ms_deleter@V?$SubscriptionCallbackHelperT@AEBV?$shared_ptr@$$CBU?$diagnostics_@V?$allocator@X@std@@@sam_custom_messages@@@mwboost@@X@ros@@@detail@mwboost@@@detail@mwboost@@UEAAPEAXAEBVtype_info@@@Z
	?get_deleter@?$sp_counted_impl_pd@PEAV?$SubscriptionCallbackHelperT@AEBV?$shared_ptr@$$CBU?$hand_pos_@V?$allocator@X@std@@@sam_custom_messages@@@mwboost@@X@ros@@V?$sp_ms_deleter@V?$SubscriptionCallbackHelperT@AEBV?$shared_ptr@$$CBU?$hand_pos_@V?$allocator@X@std@@@sam_custom_messages@@@mwboost@@X@ros@@@detail@mwboost@@@detail@mwboost@@UEAAPEAXAEBVtype_info@@@Z
	?get_deleter@?$sp_counted_impl_pd@PEAV?$SubscriptionCallbackHelperT@AEBV?$shared_ptr@$$CBU?$object_state_@V?$allocator@X@std@@@sam_custom_messages@@@mwboost@@X@ros@@V?$sp_ms_deleter@V?$SubscriptionCallbackHelperT@AEBV?$shared_ptr@$$CBU?$object_state_@V?$allocator@X@std@@@sam_custom_messages@@@mwboost@@X@ros@@@detail@mwboost@@@detail@mwboost@@UEAAPEAXAEBVtype_info@@@Z
	?get_deleter@?$sp_counted_impl_pd@PEAV?$SubscriptionCallbackHelperT@AEBV?$shared_ptr@$$CBU?$robot_state_@V?$allocator@X@std@@@sam_custom_messages@@@mwboost@@X@ros@@V?$sp_ms_deleter@V?$SubscriptionCallbackHelperT@AEBV?$shared_ptr@$$CBU?$robot_state_@V?$allocator@X@std@@@sam_custom_messages@@@mwboost@@X@ros@@@detail@mwboost@@@detail@mwboost@@UEAAPEAXAEBVtype_info@@@Z
	?get_deleter@?$sp_counted_impl_pd@PEAV?$SubscriptionCallbackHelperT@AEBV?$shared_ptr@$$CBU?$user_prediction_@V?$allocator@X@std@@@sam_custom_messages@@@mwboost@@X@ros@@V?$sp_ms_deleter@V?$SubscriptionCallbackHelperT@AEBV?$shared_ptr@$$CBU?$user_prediction_@V?$allocator@X@std@@@sam_custom_messages@@@mwboost@@X@ros@@@detail@mwboost@@@detail@mwboost@@UEAAPEAXAEBVtype_info@@@Z
	?get_event@basic_timed_mutex@detail@mwboost@@AEAAPEAXXZ
	?get_local_deleter@?$sp_counted_impl_pd@PEAEU?$checked_array_deleter@E@mwboost@@@detail@mwboost@@UEAAPEAXAEBVtype_info@@@Z
	?get_local_deleter@?$sp_counted_impl_pd@PEAU?$Object_@V?$allocator@X@std@@@sam_custom_messages@@V?$sp_ms_deleter@U?$Object_@V?$allocator@X@std@@@sam_custom_messages@@@detail@mwboost@@@detail@mwboost@@UEAAPEAXAEBVtype_info@@@Z
	?get_local_deleter@?$sp_counted_impl_pd@PEAU?$capability_@V?$allocator@X@std@@@sam_custom_messages@@V?$sp_ms_deleter@U?$capability_@V?$allocator@X@std@@@sam_custom_messages@@@detail@mwboost@@@detail@mwboost@@UEAAPEAXAEBVtype_info@@@Z
	?get_local_deleter@?$sp_counted_impl_pd@PEAU?$current_action_@V?$allocator@X@std@@@sam_custom_messages@@V?$sp_ms_deleter@U?$current_action_@V?$allocator@X@std@@@sam_custom_messages@@@detail@mwboost@@@detail@mwboost@@UEAAPEAXAEBVtype_info@@@Z
	?get_local_deleter@?$sp_counted_impl_pd@PEAU?$diagnostics_@V?$allocator@X@std@@@sam_custom_messages@@V?$sp_ms_deleter@U?$diagnostics_@V?$allocator@X@std@@@sam_custom_messages@@@detail@mwboost@@@detail@mwboost@@UEAAPEAXAEBVtype_info@@@Z
	?get_local_deleter@?$sp_counted_impl_pd@PEAU?$hand_pos_@V?$allocator@X@std@@@sam_custom_messages@@V?$sp_ms_deleter@U?$hand_pos_@V?$allocator@X@std@@@sam_custom_messages@@@detail@mwboost@@@detail@mwboost@@UEAAPEAXAEBVtype_info@@@Z
	?get_local_deleter@?$sp_counted_impl_pd@PEAU?$object_state_@V?$allocator@X@std@@@sam_custom_messages@@V?$sp_ms_deleter@U?$object_state_@V?$allocator@X@std@@@sam_custom_messages@@@detail@mwboost@@@detail@mwboost@@UEAAPEAXAEBVtype_info@@@Z
	?get_local_deleter@?$sp_counted_impl_pd@PEAU?$robot_state_@V?$allocator@X@std@@@sam_custom_messages@@V?$sp_ms_deleter@U?$robot_state_@V?$allocator@X@std@@@sam_custom_messages@@@detail@mwboost@@@detail@mwboost@@UEAAPEAXAEBVtype_info@@@Z
	?get_local_deleter@?$sp_counted_impl_pd@PEAU?$user_prediction_@V?$allocator@X@std@@@sam_custom_messages@@V?$sp_ms_deleter@U?$user_prediction_@V?$allocator@X@std@@@sam_custom_messages@@@detail@mwboost@@@detail@mwboost@@UEAAPEAXAEBVtype_info@@@Z
	?get_local_deleter@?$sp_counted_impl_pd@PEAV?$SubscriptionCallbackHelperT@AEBV?$shared_ptr@$$CBU?$Object_@V?$allocator@X@std@@@sam_custom_messages@@@mwboost@@X@ros@@V?$sp_ms_deleter@V?$SubscriptionCallbackHelperT@AEBV?$shared_ptr@$$CBU?$Object_@V?$allocator@X@std@@@sam_custom_messages@@@mwboost@@X@ros@@@detail@mwboost@@@detail@mwboost@@UEAAPEAXAEBVtype_info@@@Z
	?get_local_deleter@?$sp_counted_impl_pd@PEAV?$SubscriptionCallbackHelperT@AEBV?$shared_ptr@$$CBU?$capability_@V?$allocator@X@std@@@sam_custom_messages@@@mwboost@@X@ros@@V?$sp_ms_deleter@V?$SubscriptionCallbackHelperT@AEBV?$shared_ptr@$$CBU?$capability_@V?$allocator@X@std@@@sam_custom_messages@@@mwboost@@X@ros@@@detail@mwboost@@@detail@mwboost@@UEAAPEAXAEBVtype_info@@@Z
	?get_local_deleter@?$sp_counted_impl_pd@PEAV?$SubscriptionCallbackHelperT@AEBV?$shared_ptr@$$CBU?$current_action_@V?$allocator@X@std@@@sam_custom_messages@@@mwboost@@X@ros@@V?$sp_ms_deleter@V?$SubscriptionCallbackHelperT@AEBV?$shared_ptr@$$CBU?$current_action_@V?$allocator@X@std@@@sam_custom_messages@@@mwboost@@X@ros@@@detail@mwboost@@@detail@mwboost@@UEAAPEAXAEBVtype_info@@@Z
	?get_local_deleter@?$sp_counted_impl_pd@PEAV?$SubscriptionCallbackHelperT@AEBV?$shared_ptr@$$CBU?$diagnostics_@V?$allocator@X@std@@@sam_custom_messages@@@mwboost@@X@ros@@V?$sp_ms_deleter@V?$SubscriptionCallbackHelperT@AEBV?$shared_ptr@$$CBU?$diagnostics_@V?$allocator@X@std@@@sam_custom_messages@@@mwboost@@X@ros@@@detail@mwboost@@@detail@mwboost@@UEAAPEAXAEBVtype_info@@@Z
	?get_local_deleter@?$sp_counted_impl_pd@PEAV?$SubscriptionCallbackHelperT@AEBV?$shared_ptr@$$CBU?$hand_pos_@V?$allocator@X@std@@@sam_custom_messages@@@mwboost@@X@ros@@V?$sp_ms_deleter@V?$SubscriptionCallbackHelperT@AEBV?$shared_ptr@$$CBU?$hand_pos_@V?$allocator@X@std@@@sam_custom_messages@@@mwboost@@X@ros@@@detail@mwboost@@@detail@mwboost@@UEAAPEAXAEBVtype_info@@@Z
	?get_local_deleter@?$sp_counted_impl_pd@PEAV?$SubscriptionCallbackHelperT@AEBV?$shared_ptr@$$CBU?$object_state_@V?$allocator@X@std@@@sam_custom_messages@@@mwboost@@X@ros@@V?$sp_ms_deleter@V?$SubscriptionCallbackHelperT@AEBV?$shared_ptr@$$CBU?$object_state_@V?$allocator@X@std@@@sam_custom_messages@@@mwboost@@X@ros@@@detail@mwboost@@@detail@mwboost@@UEAAPEAXAEBVtype_info@@@Z
	?get_local_deleter@?$sp_counted_impl_pd@PEAV?$SubscriptionCallbackHelperT@AEBV?$shared_ptr@$$CBU?$robot_state_@V?$allocator@X@std@@@sam_custom_messages@@@mwboost@@X@ros@@V?$sp_ms_deleter@V?$SubscriptionCallbackHelperT@AEBV?$shared_ptr@$$CBU?$robot_state_@V?$allocator@X@std@@@sam_custom_messages@@@mwboost@@X@ros@@@detail@mwboost@@@detail@mwboost@@UEAAPEAXAEBVtype_info@@@Z
	?get_local_deleter@?$sp_counted_impl_pd@PEAV?$SubscriptionCallbackHelperT@AEBV?$shared_ptr@$$CBU?$user_prediction_@V?$allocator@X@std@@@sam_custom_messages@@@mwboost@@X@ros@@V?$sp_ms_deleter@V?$SubscriptionCallbackHelperT@AEBV?$shared_ptr@$$CBU?$user_prediction_@V?$allocator@X@std@@@sam_custom_messages@@@mwboost@@X@ros@@@detail@mwboost@@@detail@mwboost@@UEAAPEAXAEBVtype_info@@@Z
	?get_untyped_deleter@?$sp_counted_impl_pd@PEAEU?$checked_array_deleter@E@mwboost@@@detail@mwboost@@UEAAPEAXXZ
	?get_untyped_deleter@?$sp_counted_impl_pd@PEAU?$Object_@V?$allocator@X@std@@@sam_custom_messages@@V?$sp_ms_deleter@U?$Object_@V?$allocator@X@std@@@sam_custom_messages@@@detail@mwboost@@@detail@mwboost@@UEAAPEAXXZ
	?get_untyped_deleter@?$sp_counted_impl_pd@PEAU?$capability_@V?$allocator@X@std@@@sam_custom_messages@@V?$sp_ms_deleter@U?$capability_@V?$allocator@X@std@@@sam_custom_messages@@@detail@mwboost@@@detail@mwboost@@UEAAPEAXXZ
	?get_untyped_deleter@?$sp_counted_impl_pd@PEAU?$current_action_@V?$allocator@X@std@@@sam_custom_messages@@V?$sp_ms_deleter@U?$current_action_@V?$allocator@X@std@@@sam_custom_messages@@@detail@mwboost@@@detail@mwboost@@UEAAPEAXXZ
	?get_untyped_deleter@?$sp_counted_impl_pd@PEAU?$diagnostics_@V?$allocator@X@std@@@sam_custom_messages@@V?$sp_ms_deleter@U?$diagnostics_@V?$allocator@X@std@@@sam_custom_messages@@@detail@mwboost@@@detail@mwboost@@UEAAPEAXXZ
	?get_untyped_deleter@?$sp_counted_impl_pd@PEAU?$hand_pos_@V?$allocator@X@std@@@sam_custom_messages@@V?$sp_ms_deleter@U?$hand_pos_@V?$allocator@X@std@@@sam_custom_messages@@@detail@mwboost@@@detail@mwboost@@UEAAPEAXXZ
	?get_untyped_deleter@?$sp_counted_impl_pd@PEAU?$object_state_@V?$allocator@X@std@@@sam_custom_messages@@V?$sp_ms_deleter@U?$object_state_@V?$allocator@X@std@@@sam_custom_messages@@@detail@mwboost@@@detail@mwboost@@UEAAPEAXXZ
	?get_untyped_deleter@?$sp_counted_impl_pd@PEAU?$robot_state_@V?$allocator@X@std@@@sam_custom_messages@@V?$sp_ms_deleter@U?$robot_state_@V?$allocator@X@std@@@sam_custom_messages@@@detail@mwboost@@@detail@mwboost@@UEAAPEAXXZ
	?get_untyped_deleter@?$sp_counted_impl_pd@PEAU?$user_prediction_@V?$allocator@X@std@@@sam_custom_messages@@V?$sp_ms_deleter@U?$user_prediction_@V?$allocator@X@std@@@sam_custom_messages@@@detail@mwboost@@@detail@mwboost@@UEAAPEAXXZ
	?get_untyped_deleter@?$sp_counted_impl_pd@PEAV?$SubscriptionCallbackHelperT@AEBV?$shared_ptr@$$CBU?$Object_@V?$allocator@X@std@@@sam_custom_messages@@@mwboost@@X@ros@@V?$sp_ms_deleter@V?$SubscriptionCallbackHelperT@AEBV?$shared_ptr@$$CBU?$Object_@V?$allocator@X@std@@@sam_custom_messages@@@mwboost@@X@ros@@@detail@mwboost@@@detail@mwboost@@UEAAPEAXXZ
	?get_untyped_deleter@?$sp_counted_impl_pd@PEAV?$SubscriptionCallbackHelperT@AEBV?$shared_ptr@$$CBU?$capability_@V?$allocator@X@std@@@sam_custom_messages@@@mwboost@@X@ros@@V?$sp_ms_deleter@V?$SubscriptionCallbackHelperT@AEBV?$shared_ptr@$$CBU?$capability_@V?$allocator@X@std@@@sam_custom_messages@@@mwboost@@X@ros@@@detail@mwboost@@@detail@mwboost@@UEAAPEAXXZ
	?get_untyped_deleter@?$sp_counted_impl_pd@PEAV?$SubscriptionCallbackHelperT@AEBV?$shared_ptr@$$CBU?$current_action_@V?$allocator@X@std@@@sam_custom_messages@@@mwboost@@X@ros@@V?$sp_ms_deleter@V?$SubscriptionCallbackHelperT@AEBV?$shared_ptr@$$CBU?$current_action_@V?$allocator@X@std@@@sam_custom_messages@@@mwboost@@X@ros@@@detail@mwboost@@@detail@mwboost@@UEAAPEAXXZ
	?get_untyped_deleter@?$sp_counted_impl_pd@PEAV?$SubscriptionCallbackHelperT@AEBV?$shared_ptr@$$CBU?$diagnostics_@V?$allocator@X@std@@@sam_custom_messages@@@mwboost@@X@ros@@V?$sp_ms_deleter@V?$SubscriptionCallbackHelperT@AEBV?$shared_ptr@$$CBU?$diagnostics_@V?$allocator@X@std@@@sam_custom_messages@@@mwboost@@X@ros@@@detail@mwboost@@@detail@mwboost@@UEAAPEAXXZ
	?get_untyped_deleter@?$sp_counted_impl_pd@PEAV?$SubscriptionCallbackHelperT@AEBV?$shared_ptr@$$CBU?$hand_pos_@V?$allocator@X@std@@@sam_custom_messages@@@mwboost@@X@ros@@V?$sp_ms_deleter@V?$SubscriptionCallbackHelperT@AEBV?$shared_ptr@$$CBU?$hand_pos_@V?$allocator@X@std@@@sam_custom_messages@@@mwboost@@X@ros@@@detail@mwboost@@@detail@mwboost@@UEAAPEAXXZ
	?get_untyped_deleter@?$sp_counted_impl_pd@PEAV?$SubscriptionCallbackHelperT@AEBV?$shared_ptr@$$CBU?$object_state_@V?$allocator@X@std@@@sam_custom_messages@@@mwboost@@X@ros@@V?$sp_ms_deleter@V?$SubscriptionCallbackHelperT@AEBV?$shared_ptr@$$CBU?$object_state_@V?$allocator@X@std@@@sam_custom_messages@@@mwboost@@X@ros@@@detail@mwboost@@@detail@mwboost@@UEAAPEAXXZ
	?get_untyped_deleter@?$sp_counted_impl_pd@PEAV?$SubscriptionCallbackHelperT@AEBV?$shared_ptr@$$CBU?$robot_state_@V?$allocator@X@std@@@sam_custom_messages@@@mwboost@@X@ros@@V?$sp_ms_deleter@V?$SubscriptionCallbackHelperT@AEBV?$shared_ptr@$$CBU?$robot_state_@V?$allocator@X@std@@@sam_custom_messages@@@mwboost@@X@ros@@@detail@mwboost@@@detail@mwboost@@UEAAPEAXXZ
	?get_untyped_deleter@?$sp_counted_impl_pd@PEAV?$SubscriptionCallbackHelperT@AEBV?$shared_ptr@$$CBU?$user_prediction_@V?$allocator@X@std@@@sam_custom_messages@@@mwboost@@X@ros@@V?$sp_ms_deleter@V?$SubscriptionCallbackHelperT@AEBV?$shared_ptr@$$CBU?$user_prediction_@V?$allocator@X@std@@@sam_custom_messages@@@mwboost@@X@ros@@@detail@mwboost@@@detail@mwboost@@UEAAPEAXXZ
	?hasHeader@?$SubscriptionCallbackHelperT@AEBV?$shared_ptr@$$CBU?$Object_@V?$allocator@X@std@@@sam_custom_messages@@@mwboost@@X@ros@@UEAA_NXZ
	?hasHeader@?$SubscriptionCallbackHelperT@AEBV?$shared_ptr@$$CBU?$capability_@V?$allocator@X@std@@@sam_custom_messages@@@mwboost@@X@ros@@UEAA_NXZ
	?hasHeader@?$SubscriptionCallbackHelperT@AEBV?$shared_ptr@$$CBU?$current_action_@V?$allocator@X@std@@@sam_custom_messages@@@mwboost@@X@ros@@UEAA_NXZ
	?hasHeader@?$SubscriptionCallbackHelperT@AEBV?$shared_ptr@$$CBU?$diagnostics_@V?$allocator@X@std@@@sam_custom_messages@@@mwboost@@X@ros@@UEAA_NXZ
	?hasHeader@?$SubscriptionCallbackHelperT@AEBV?$shared_ptr@$$CBU?$hand_pos_@V?$allocator@X@std@@@sam_custom_messages@@@mwboost@@X@ros@@UEAA_NXZ
	?hasHeader@?$SubscriptionCallbackHelperT@AEBV?$shared_ptr@$$CBU?$object_state_@V?$allocator@X@std@@@sam_custom_messages@@@mwboost@@X@ros@@UEAA_NXZ
	?hasHeader@?$SubscriptionCallbackHelperT@AEBV?$shared_ptr@$$CBU?$robot_state_@V?$allocator@X@std@@@sam_custom_messages@@@mwboost@@X@ros@@UEAA_NXZ
	?hasHeader@?$SubscriptionCallbackHelperT@AEBV?$shared_ptr@$$CBU?$user_prediction_@V?$allocator@X@std@@@sam_custom_messages@@@mwboost@@X@ros@@UEAA_NXZ
	?has_empty_target@function@detail@mwboost@@YA_NZZ
	?init@?$MessageEvent@$$CBU?$Object_@V?$allocator@X@std@@@sam_custom_messages@@@ros@@QEAAXAEBV?$shared_ptr@$$CBU?$Object_@V?$allocator@X@std@@@sam_custom_messages@@@mwboost@@AEBV?$shared_ptr@V?$map@V?$basic_string@DU?$char_traits@D@std@@V?$allocator@D@2@@std@@V12@U?$less@V?$basic_string@DU?$char_traits@D@std@@V?$allocator@D@2@@std@@@2@V?$allocator@U?$pair@$$CBV?$basic_string@DU?$char_traits@D@std@@V?$allocator@D@2@@std@@V12@@std@@@2@@std@@@4@VTime@2@_NAEBV?$function@$$A6A?AV?$shared_ptr@U?$Object_@V?$allocator@X@std@@@sam_custom_messages@@@mwboost@@XZ@4@@Z
	?init@?$MessageEvent@$$CBU?$capability_@V?$allocator@X@std@@@sam_custom_messages@@@ros@@QEAAXAEBV?$shared_ptr@$$CBU?$capability_@V?$allocator@X@std@@@sam_custom_messages@@@mwboost@@AEBV?$shared_ptr@V?$map@V?$basic_string@DU?$char_traits@D@std@@V?$allocator@D@2@@std@@V12@U?$less@V?$basic_string@DU?$char_traits@D@std@@V?$allocator@D@2@@std@@@2@V?$allocator@U?$pair@$$CBV?$basic_string@DU?$char_traits@D@std@@V?$allocator@D@2@@std@@V12@@std@@@2@@std@@@4@VTime@2@_NAEBV?$function@$$A6A?AV?$shared_ptr@U?$capability_@V?$allocator@X@std@@@sam_custom_messages@@@mwboost@@XZ@4@@Z
	?init@?$MessageEvent@$$CBU?$current_action_@V?$allocator@X@std@@@sam_custom_messages@@@ros@@QEAAXAEBV?$shared_ptr@$$CBU?$current_action_@V?$allocator@X@std@@@sam_custom_messages@@@mwboost@@AEBV?$shared_ptr@V?$map@V?$basic_string@DU?$char_traits@D@std@@V?$allocator@D@2@@std@@V12@U?$less@V?$basic_string@DU?$char_traits@D@std@@V?$allocator@D@2@@std@@@2@V?$allocator@U?$pair@$$CBV?$basic_string@DU?$char_traits@D@std@@V?$allocator@D@2@@std@@V12@@std@@@2@@std@@@4@VTime@2@_NAEBV?$function@$$A6A?AV?$shared_ptr@U?$current_action_@V?$allocator@X@std@@@sam_custom_messages@@@mwboost@@XZ@4@@Z
	?init@?$MessageEvent@$$CBU?$diagnostics_@V?$allocator@X@std@@@sam_custom_messages@@@ros@@QEAAXAEBV?$shared_ptr@$$CBU?$diagnostics_@V?$allocator@X@std@@@sam_custom_messages@@@mwboost@@AEBV?$shared_ptr@V?$map@V?$basic_string@DU?$char_traits@D@std@@V?$allocator@D@2@@std@@V12@U?$less@V?$basic_string@DU?$char_traits@D@std@@V?$allocator@D@2@@std@@@2@V?$allocator@U?$pair@$$CBV?$basic_string@DU?$char_traits@D@std@@V?$allocator@D@2@@std@@V12@@std@@@2@@std@@@4@VTime@2@_NAEBV?$function@$$A6A?AV?$shared_ptr@U?$diagnostics_@V?$allocator@X@std@@@sam_custom_messages@@@mwboost@@XZ@4@@Z
	?init@?$MessageEvent@$$CBU?$hand_pos_@V?$allocator@X@std@@@sam_custom_messages@@@ros@@QEAAXAEBV?$shared_ptr@$$CBU?$hand_pos_@V?$allocator@X@std@@@sam_custom_messages@@@mwboost@@AEBV?$shared_ptr@V?$map@V?$basic_string@DU?$char_traits@D@std@@V?$allocator@D@2@@std@@V12@U?$less@V?$basic_string@DU?$char_traits@D@std@@V?$allocator@D@2@@std@@@2@V?$allocator@U?$pair@$$CBV?$basic_string@DU?$char_traits@D@std@@V?$allocator@D@2@@std@@V12@@std@@@2@@std@@@4@VTime@2@_NAEBV?$function@$$A6A?AV?$shared_ptr@U?$hand_pos_@V?$allocator@X@std@@@sam_custom_messages@@@mwboost@@XZ@4@@Z
	?init@?$MessageEvent@$$CBU?$object_state_@V?$allocator@X@std@@@sam_custom_messages@@@ros@@QEAAXAEBV?$shared_ptr@$$CBU?$object_state_@V?$allocator@X@std@@@sam_custom_messages@@@mwboost@@AEBV?$shared_ptr@V?$map@V?$basic_string@DU?$char_traits@D@std@@V?$allocator@D@2@@std@@V12@U?$less@V?$basic_string@DU?$char_traits@D@std@@V?$allocator@D@2@@std@@@2@V?$allocator@U?$pair@$$CBV?$basic_string@DU?$char_traits@D@std@@V?$allocator@D@2@@std@@V12@@std@@@2@@std@@@4@VTime@2@_NAEBV?$function@$$A6A?AV?$shared_ptr@U?$object_state_@V?$allocator@X@std@@@sam_custom_messages@@@mwboost@@XZ@4@@Z
	?init@?$MessageEvent@$$CBU?$robot_state_@V?$allocator@X@std@@@sam_custom_messages@@@ros@@QEAAXAEBV?$shared_ptr@$$CBU?$robot_state_@V?$allocator@X@std@@@sam_custom_messages@@@mwboost@@AEBV?$shared_ptr@V?$map@V?$basic_string@DU?$char_traits@D@std@@V?$allocator@D@2@@std@@V12@U?$less@V?$basic_string@DU?$char_traits@D@std@@V?$allocator@D@2@@std@@@2@V?$allocator@U?$pair@$$CBV?$basic_string@DU?$char_traits@D@std@@V?$allocator@D@2@@std@@V12@@std@@@2@@std@@@4@VTime@2@_NAEBV?$function@$$A6A?AV?$shared_ptr@U?$robot_state_@V?$allocator@X@std@@@sam_custom_messages@@@mwboost@@XZ@4@@Z
	?init@?$MessageEvent@$$CBU?$user_prediction_@V?$allocator@X@std@@@sam_custom_messages@@@ros@@QEAAXAEBV?$shared_ptr@$$CBU?$user_prediction_@V?$allocator@X@std@@@sam_custom_messages@@@mwboost@@AEBV?$shared_ptr@V?$map@V?$basic_string@DU?$char_traits@D@std@@V?$allocator@D@2@@std@@V12@U?$less@V?$basic_string@DU?$char_traits@D@std@@V?$allocator@D@2@@std@@@2@V?$allocator@U?$pair@$$CBV?$basic_string@DU?$char_traits@D@std@@V?$allocator@D@2@@std@@V12@@std@@@2@@std@@@4@VTime@2@_NAEBV?$function@$$A6A?AV?$shared_ptr@U?$user_prediction_@V?$allocator@X@std@@@sam_custom_messages@@@mwboost@@XZ@4@@Z
	?insert@?$basic_string@DU?$char_traits@D@std@@V?$allocator@D@2@@std@@QEAAAEAV12@_KAEBV12@@Z
	?insert@?$basic_string@DU?$char_traits@D@std@@V?$allocator@D@2@@std@@QEAAAEAV12@_KQEBD0@Z
	?invoke@?$function_obj_invoker0@U?$DefaultMessageCreator@U?$Object_@V?$allocator@X@std@@@sam_custom_messages@@@ros@@V?$shared_ptr@U?$Object_@V?$allocator@X@std@@@sam_custom_messages@@@mwboost@@@function@detail@mwboost@@SA?AV?$shared_ptr@U?$Object_@V?$allocator@X@std@@@sam_custom_messages@@@4@AEATfunction_buffer@234@@Z
	?invoke@?$function_obj_invoker0@U?$DefaultMessageCreator@U?$capability_@V?$allocator@X@std@@@sam_custom_messages@@@ros@@V?$shared_ptr@U?$capability_@V?$allocator@X@std@@@sam_custom_messages@@@mwboost@@@function@detail@mwboost@@SA?AV?$shared_ptr@U?$capability_@V?$allocator@X@std@@@sam_custom_messages@@@4@AEATfunction_buffer@234@@Z
	?invoke@?$function_obj_invoker0@U?$DefaultMessageCreator@U?$current_action_@V?$allocator@X@std@@@sam_custom_messages@@@ros@@V?$shared_ptr@U?$current_action_@V?$allocator@X@std@@@sam_custom_messages@@@mwboost@@@function@detail@mwboost@@SA?AV?$shared_ptr@U?$current_action_@V?$allocator@X@std@@@sam_custom_messages@@@4@AEATfunction_buffer@234@@Z
	?invoke@?$function_obj_invoker0@U?$DefaultMessageCreator@U?$diagnostics_@V?$allocator@X@std@@@sam_custom_messages@@@ros@@V?$shared_ptr@U?$diagnostics_@V?$allocator@X@std@@@sam_custom_messages@@@mwboost@@@function@detail@mwboost@@SA?AV?$shared_ptr@U?$diagnostics_@V?$allocator@X@std@@@sam_custom_messages@@@4@AEATfunction_buffer@234@@Z
	?invoke@?$function_obj_invoker0@U?$DefaultMessageCreator@U?$hand_pos_@V?$allocator@X@std@@@sam_custom_messages@@@ros@@V?$shared_ptr@U?$hand_pos_@V?$allocator@X@std@@@sam_custom_messages@@@mwboost@@@function@detail@mwboost@@SA?AV?$shared_ptr@U?$hand_pos_@V?$allocator@X@std@@@sam_custom_messages@@@4@AEATfunction_buffer@234@@Z
	?invoke@?$function_obj_invoker0@U?$DefaultMessageCreator@U?$object_state_@V?$allocator@X@std@@@sam_custom_messages@@@ros@@V?$shared_ptr@U?$object_state_@V?$allocator@X@std@@@sam_custom_messages@@@mwboost@@@function@detail@mwboost@@SA?AV?$shared_ptr@U?$object_state_@V?$allocator@X@std@@@sam_custom_messages@@@4@AEATfunction_buffer@234@@Z
	?invoke@?$function_obj_invoker0@U?$DefaultMessageCreator@U?$robot_state_@V?$allocator@X@std@@@sam_custom_messages@@@ros@@V?$shared_ptr@U?$robot_state_@V?$allocator@X@std@@@sam_custom_messages@@@mwboost@@@function@detail@mwboost@@SA?AV?$shared_ptr@U?$robot_state_@V?$allocator@X@std@@@sam_custom_messages@@@4@AEATfunction_buffer@234@@Z
	?invoke@?$function_obj_invoker0@U?$DefaultMessageCreator@U?$user_prediction_@V?$allocator@X@std@@@sam_custom_messages@@@ros@@V?$shared_ptr@U?$user_prediction_@V?$allocator@X@std@@@sam_custom_messages@@@mwboost@@@function@detail@mwboost@@SA?AV?$shared_ptr@U?$user_prediction_@V?$allocator@X@std@@@sam_custom_messages@@@4@AEATfunction_buffer@234@@Z
	?invoke@?$function_obj_invoker0@V?$bind_t@VSerializedMessage@ros@@P6A?AV12@AEBU?$Object_@V?$allocator@X@std@@@sam_custom_messages@@@ZV?$list1@V?$reference_wrapper@U?$Object_@V?$allocator@X@std@@@sam_custom_messages@@@mwboost@@@_bi@mwboost@@@_bi@mwboost@@VSerializedMessage@ros@@@function@detail@mwboost@@SA?AVSerializedMessage@ros@@AEATfunction_buffer@234@@Z
	?invoke@?$function_obj_invoker0@V?$bind_t@VSerializedMessage@ros@@P6A?AV12@AEBU?$capability_@V?$allocator@X@std@@@sam_custom_messages@@@ZV?$list1@V?$reference_wrapper@U?$capability_@V?$allocator@X@std@@@sam_custom_messages@@@mwboost@@@_bi@mwboost@@@_bi@mwboost@@VSerializedMessage@ros@@@function@detail@mwboost@@SA?AVSerializedMessage@ros@@AEATfunction_buffer@234@@Z
	?invoke@?$function_obj_invoker0@V?$bind_t@VSerializedMessage@ros@@P6A?AV12@AEBU?$current_action_@V?$allocator@X@std@@@sam_custom_messages@@@ZV?$list1@V?$reference_wrapper@U?$current_action_@V?$allocator@X@std@@@sam_custom_messages@@@mwboost@@@_bi@mwboost@@@_bi@mwboost@@VSerializedMessage@ros@@@function@detail@mwboost@@SA?AVSerializedMessage@ros@@AEATfunction_buffer@234@@Z
	?invoke@?$function_obj_invoker0@V?$bind_t@VSerializedMessage@ros@@P6A?AV12@AEBU?$diagnostics_@V?$allocator@X@std@@@sam_custom_messages@@@ZV?$list1@V?$reference_wrapper@U?$diagnostics_@V?$allocator@X@std@@@sam_custom_messages@@@mwboost@@@_bi@mwboost@@@_bi@mwboost@@VSerializedMessage@ros@@@function@detail@mwboost@@SA?AVSerializedMessage@ros@@AEATfunction_buffer@234@@Z
	?invoke@?$function_obj_invoker0@V?$bind_t@VSerializedMessage@ros@@P6A?AV12@AEBU?$hand_pos_@V?$allocator@X@std@@@sam_custom_messages@@@ZV?$list1@V?$reference_wrapper@U?$hand_pos_@V?$allocator@X@std@@@sam_custom_messages@@@mwboost@@@_bi@mwboost@@@_bi@mwboost@@VSerializedMessage@ros@@@function@detail@mwboost@@SA?AVSerializedMessage@ros@@AEATfunction_buffer@234@@Z
	?invoke@?$function_obj_invoker0@V?$bind_t@VSerializedMessage@ros@@P6A?AV12@AEBU?$object_state_@V?$allocator@X@std@@@sam_custom_messages@@@ZV?$list1@V?$reference_wrapper@U?$object_state_@V?$allocator@X@std@@@sam_custom_messages@@@mwboost@@@_bi@mwboost@@@_bi@mwboost@@VSerializedMessage@ros@@@function@detail@mwboost@@SA?AVSerializedMessage@ros@@AEATfunction_buffer@234@@Z
	?invoke@?$function_obj_invoker0@V?$bind_t@VSerializedMessage@ros@@P6A?AV12@AEBU?$robot_state_@V?$allocator@X@std@@@sam_custom_messages@@@ZV?$list1@V?$reference_wrapper@U?$robot_state_@V?$allocator@X@std@@@sam_custom_messages@@@mwboost@@@_bi@mwboost@@@_bi@mwboost@@VSerializedMessage@ros@@@function@detail@mwboost@@SA?AVSerializedMessage@ros@@AEATfunction_buffer@234@@Z
	?invoke@?$function_obj_invoker0@V?$bind_t@VSerializedMessage@ros@@P6A?AV12@AEBU?$user_prediction_@V?$allocator@X@std@@@sam_custom_messages@@@ZV?$list1@V?$reference_wrapper@U?$user_prediction_@V?$allocator@X@std@@@sam_custom_messages@@@mwboost@@@_bi@mwboost@@@_bi@mwboost@@VSerializedMessage@ros@@@function@detail@mwboost@@SA?AVSerializedMessage@ros@@AEATfunction_buffer@234@@Z
	?invoke@?$void_function_obj_invoker1@V?$bind_t@XV?$mf1@XVsam_custom_messages_msg_Object_subscriber@@AEBV?$shared_ptr@$$CBU?$Object_@V?$allocator@X@std@@@sam_custom_messages@@@mwboost@@@_mfi@mwboost@@V?$list2@V?$value@PEAVsam_custom_messages_msg_Object_subscriber@@@_bi@mwboost@@U?$arg@$00@3@@_bi@3@@_bi@mwboost@@XAEBV?$shared_ptr@$$CBU?$Object_@V?$allocator@X@std@@@sam_custom_messages@@@3@@function@detail@mwboost@@SAXAEATfunction_buffer@234@AEBV?$shared_ptr@$$CBU?$Object_@V?$allocator@X@std@@@sam_custom_messages@@@4@@Z
	?invoke@?$void_function_obj_invoker1@V?$bind_t@XV?$mf1@XVsam_custom_messages_msg_capability_subscriber@@AEBV?$shared_ptr@$$CBU?$capability_@V?$allocator@X@std@@@sam_custom_messages@@@mwboost@@@_mfi@mwboost@@V?$list2@V?$value@PEAVsam_custom_messages_msg_capability_subscriber@@@_bi@mwboost@@U?$arg@$00@3@@_bi@3@@_bi@mwboost@@XAEBV?$shared_ptr@$$CBU?$capability_@V?$allocator@X@std@@@sam_custom_messages@@@3@@function@detail@mwboost@@SAXAEATfunction_buffer@234@AEBV?$shared_ptr@$$CBU?$capability_@V?$allocator@X@std@@@sam_custom_messages@@@4@@Z
	?invoke@?$void_function_obj_invoker1@V?$bind_t@XV?$mf1@XVsam_custom_messages_msg_current_action_subscriber@@AEBV?$shared_ptr@$$CBU?$current_action_@V?$allocator@X@std@@@sam_custom_messages@@@mwboost@@@_mfi@mwboost@@V?$list2@V?$value@PEAVsam_custom_messages_msg_current_action_subscriber@@@_bi@mwboost@@U?$arg@$00@3@@_bi@3@@_bi@mwboost@@XAEBV?$shared_ptr@$$CBU?$current_action_@V?$allocator@X@std@@@sam_custom_messages@@@3@@function@detail@mwboost@@SAXAEATfunction_buffer@234@AEBV?$shared_ptr@$$CBU?$current_action_@V?$allocator@X@std@@@sam_custom_messages@@@4@@Z
	?invoke@?$void_function_obj_invoker1@V?$bind_t@XV?$mf1@XVsam_custom_messages_msg_diagnostics_subscriber@@AEBV?$shared_ptr@$$CBU?$diagnostics_@V?$allocator@X@std@@@sam_custom_messages@@@mwboost@@@_mfi@mwboost@@V?$list2@V?$value@PEAVsam_custom_messages_msg_diagnostics_subscriber@@@_bi@mwboost@@U?$arg@$00@3@@_bi@3@@_bi@mwboost@@XAEBV?$shared_ptr@$$CBU?$diagnostics_@V?$allocator@X@std@@@sam_custom_messages@@@3@@function@detail@mwboost@@SAXAEATfunction_buffer@234@AEBV?$shared_ptr@$$CBU?$diagnostics_@V?$allocator@X@std@@@sam_custom_messages@@@4@@Z
	?invoke@?$void_function_obj_invoker1@V?$bind_t@XV?$mf1@XVsam_custom_messages_msg_hand_pos_subscriber@@AEBV?$shared_ptr@$$CBU?$hand_pos_@V?$allocator@X@std@@@sam_custom_messages@@@mwboost@@@_mfi@mwboost@@V?$list2@V?$value@PEAVsam_custom_messages_msg_hand_pos_subscriber@@@_bi@mwboost@@U?$arg@$00@3@@_bi@3@@_bi@mwboost@@XAEBV?$shared_ptr@$$CBU?$hand_pos_@V?$allocator@X@std@@@sam_custom_messages@@@3@@function@detail@mwboost@@SAXAEATfunction_buffer@234@AEBV?$shared_ptr@$$CBU?$hand_pos_@V?$allocator@X@std@@@sam_custom_messages@@@4@@Z
	?invoke@?$void_function_obj_invoker1@V?$bind_t@XV?$mf1@XVsam_custom_messages_msg_object_state_subscriber@@AEBV?$shared_ptr@$$CBU?$object_state_@V?$allocator@X@std@@@sam_custom_messages@@@mwboost@@@_mfi@mwboost@@V?$list2@V?$value@PEAVsam_custom_messages_msg_object_state_subscriber@@@_bi@mwboost@@U?$arg@$00@3@@_bi@3@@_bi@mwboost@@XAEBV?$shared_ptr@$$CBU?$object_state_@V?$allocator@X@std@@@sam_custom_messages@@@3@@function@detail@mwboost@@SAXAEATfunction_buffer@234@AEBV?$shared_ptr@$$CBU?$object_state_@V?$allocator@X@std@@@sam_custom_messages@@@4@@Z
	?invoke@?$void_function_obj_invoker1@V?$bind_t@XV?$mf1@XVsam_custom_messages_msg_robot_state_subscriber@@AEBV?$shared_ptr@$$CBU?$robot_state_@V?$allocator@X@std@@@sam_custom_messages@@@mwboost@@@_mfi@mwboost@@V?$list2@V?$value@PEAVsam_custom_messages_msg_robot_state_subscriber@@@_bi@mwboost@@U?$arg@$00@3@@_bi@3@@_bi@mwboost@@XAEBV?$shared_ptr@$$CBU?$robot_state_@V?$allocator@X@std@@@sam_custom_messages@@@3@@function@detail@mwboost@@SAXAEATfunction_buffer@234@AEBV?$shared_ptr@$$CBU?$robot_state_@V?$allocator@X@std@@@sam_custom_messages@@@4@@Z
	?invoke@?$void_function_obj_invoker1@V?$bind_t@XV?$mf1@XVsam_custom_messages_msg_user_prediction_subscriber@@AEBV?$shared_ptr@$$CBU?$user_prediction_@V?$allocator@X@std@@@sam_custom_messages@@@mwboost@@@_mfi@mwboost@@V?$list2@V?$value@PEAVsam_custom_messages_msg_user_prediction_subscriber@@@_bi@mwboost@@U?$arg@$00@3@@_bi@3@@_bi@mwboost@@XAEBV?$shared_ptr@$$CBU?$user_prediction_@V?$allocator@X@std@@@sam_custom_messages@@@3@@function@detail@mwboost@@SAXAEATfunction_buffer@234@AEBV?$shared_ptr@$$CBU?$user_prediction_@V?$allocator@X@std@@@sam_custom_messages@@@4@@Z
	?invoke@?$void_function_obj_invoker1@V?$function@$$A6AXAEBV?$shared_ptr@$$CBU?$Object_@V?$allocator@X@std@@@sam_custom_messages@@@mwboost@@@Z@mwboost@@XV?$shared_ptr@$$CBU?$Object_@V?$allocator@X@std@@@sam_custom_messages@@@2@@function@detail@mwboost@@SAXAEATfunction_buffer@234@V?$shared_ptr@$$CBU?$Object_@V?$allocator@X@std@@@sam_custom_messages@@@4@@Z
	?invoke@?$void_function_obj_invoker1@V?$function@$$A6AXAEBV?$shared_ptr@$$CBU?$capability_@V?$allocator@X@std@@@sam_custom_messages@@@mwboost@@@Z@mwboost@@XV?$shared_ptr@$$CBU?$capability_@V?$allocator@X@std@@@sam_custom_messages@@@2@@function@detail@mwboost@@SAXAEATfunction_buffer@234@V?$shared_ptr@$$CBU?$capability_@V?$allocator@X@std@@@sam_custom_messages@@@4@@Z
	?invoke@?$void_function_obj_invoker1@V?$function@$$A6AXAEBV?$shared_ptr@$$CBU?$current_action_@V?$allocator@X@std@@@sam_custom_messages@@@mwboost@@@Z@mwboost@@XV?$shared_ptr@$$CBU?$current_action_@V?$allocator@X@std@@@sam_custom_messages@@@2@@function@detail@mwboost@@SAXAEATfunction_buffer@234@V?$shared_ptr@$$CBU?$current_action_@V?$allocator@X@std@@@sam_custom_messages@@@4@@Z
	?invoke@?$void_function_obj_invoker1@V?$function@$$A6AXAEBV?$shared_ptr@$$CBU?$diagnostics_@V?$allocator@X@std@@@sam_custom_messages@@@mwboost@@@Z@mwboost@@XV?$shared_ptr@$$CBU?$diagnostics_@V?$allocator@X@std@@@sam_custom_messages@@@2@@function@detail@mwboost@@SAXAEATfunction_buffer@234@V?$shared_ptr@$$CBU?$diagnostics_@V?$allocator@X@std@@@sam_custom_messages@@@4@@Z
	?invoke@?$void_function_obj_invoker1@V?$function@$$A6AXAEBV?$shared_ptr@$$CBU?$hand_pos_@V?$allocator@X@std@@@sam_custom_messages@@@mwboost@@@Z@mwboost@@XV?$shared_ptr@$$CBU?$hand_pos_@V?$allocator@X@std@@@sam_custom_messages@@@2@@function@detail@mwboost@@SAXAEATfunction_buffer@234@V?$shared_ptr@$$CBU?$hand_pos_@V?$allocator@X@std@@@sam_custom_messages@@@4@@Z
	?invoke@?$void_function_obj_invoker1@V?$function@$$A6AXAEBV?$shared_ptr@$$CBU?$object_state_@V?$allocator@X@std@@@sam_custom_messages@@@mwboost@@@Z@mwboost@@XV?$shared_ptr@$$CBU?$object_state_@V?$allocator@X@std@@@sam_custom_messages@@@2@@function@detail@mwboost@@SAXAEATfunction_buffer@234@V?$shared_ptr@$$CBU?$object_state_@V?$allocator@X@std@@@sam_custom_messages@@@4@@Z
	?invoke@?$void_function_obj_invoker1@V?$function@$$A6AXAEBV?$shared_ptr@$$CBU?$robot_state_@V?$allocator@X@std@@@sam_custom_messages@@@mwboost@@@Z@mwboost@@XV?$shared_ptr@$$CBU?$robot_state_@V?$allocator@X@std@@@sam_custom_messages@@@2@@function@detail@mwboost@@SAXAEATfunction_buffer@234@V?$shared_ptr@$$CBU?$robot_state_@V?$allocator@X@std@@@sam_custom_messages@@@4@@Z
	?invoke@?$void_function_obj_invoker1@V?$function@$$A6AXAEBV?$shared_ptr@$$CBU?$user_prediction_@V?$allocator@X@std@@@sam_custom_messages@@@mwboost@@@Z@mwboost@@XV?$shared_ptr@$$CBU?$user_prediction_@V?$allocator@X@std@@@sam_custom_messages@@@2@@function@detail@mwboost@@SAXAEATfunction_buffer@234@V?$shared_ptr@$$CBU?$user_prediction_@V?$allocator@X@std@@@sam_custom_messages@@@4@@Z
	?isAscii7@detail@data@matlab@@YA_NAEBV?$basic_string@DU?$char_traits@D@std@@V?$allocator@D@2@@std@@@Z
	?isConst@?$SubscriptionCallbackHelperT@AEBV?$shared_ptr@$$CBU?$Object_@V?$allocator@X@std@@@sam_custom_messages@@@mwboost@@X@ros@@UEAA_NXZ
	?isConst@?$SubscriptionCallbackHelperT@AEBV?$shared_ptr@$$CBU?$capability_@V?$allocator@X@std@@@sam_custom_messages@@@mwboost@@X@ros@@UEAA_NXZ
	?isConst@?$SubscriptionCallbackHelperT@AEBV?$shared_ptr@$$CBU?$current_action_@V?$allocator@X@std@@@sam_custom_messages@@@mwboost@@X@ros@@UEAA_NXZ
	?isConst@?$SubscriptionCallbackHelperT@AEBV?$shared_ptr@$$CBU?$diagnostics_@V?$allocator@X@std@@@sam_custom_messages@@@mwboost@@X@ros@@UEAA_NXZ
	?isConst@?$SubscriptionCallbackHelperT@AEBV?$shared_ptr@$$CBU?$hand_pos_@V?$allocator@X@std@@@sam_custom_messages@@@mwboost@@X@ros@@UEAA_NXZ
	?isConst@?$SubscriptionCallbackHelperT@AEBV?$shared_ptr@$$CBU?$object_state_@V?$allocator@X@std@@@sam_custom_messages@@@mwboost@@X@ros@@UEAA_NXZ
	?isConst@?$SubscriptionCallbackHelperT@AEBV?$shared_ptr@$$CBU?$robot_state_@V?$allocator@X@std@@@sam_custom_messages@@@mwboost@@X@ros@@UEAA_NXZ
	?isConst@?$SubscriptionCallbackHelperT@AEBV?$shared_ptr@$$CBU?$user_prediction_@V?$allocator@X@std@@@sam_custom_messages@@@mwboost@@X@ros@@UEAA_NXZ
	?lock@?$basic_recursive_mutex_impl@Ubasic_timed_mutex@detail@mwboost@@@detail@mwboost@@QEAAXXZ
	?lock@basic_timed_mutex@detail@mwboost@@QEAAXXZ
	?lower_bound@?$_Tree@V?$_Tmap_traits@V?$basic_string@DU?$char_traits@D@std@@V?$allocator@D@2@@std@@PEAVAbstractMetaObjectBase@impl@class_loader@@U?$less@V?$basic_string@DU?$char_traits@D@std@@V?$allocator@D@2@@std@@@2@V?$allocator@U?$pair@$$CBV?$basic_string@DU?$char_traits@D@std@@V?$allocator@D@2@@std@@PEAVAbstractMetaObjectBase@impl@class_loader@@@std@@@2@$0A@@std@@@std@@QEAA?AV?$_Tree_iterator@V?$_Tree_val@U?$_Tree_simple_types@U?$pair@$$CBV?$basic_string@DU?$char_traits@D@std@@V?$allocator@D@2@@std@@PEAVAbstractMetaObjectBase@impl@class_loader@@@std@@@std@@@std@@@2@AEBV?$basic_string@DU?$char_traits@D@std@@V?$allocator@D@2@@2@@Z
	?manage@?$functor_manager@U?$DefaultMessageCreator@U?$Object_@V?$allocator@X@std@@@sam_custom_messages@@@ros@@@function@detail@mwboost@@SAXAEBTfunction_buffer@234@AEAT5234@W4functor_manager_operation_type@234@@Z
	?manage@?$functor_manager@U?$DefaultMessageCreator@U?$capability_@V?$allocator@X@std@@@sam_custom_messages@@@ros@@@function@detail@mwboost@@SAXAEBTfunction_buffer@234@AEAT5234@W4functor_manager_operation_type@234@@Z
	?manage@?$functor_manager@U?$DefaultMessageCreator@U?$current_action_@V?$allocator@X@std@@@sam_custom_messages@@@ros@@@function@detail@mwboost@@SAXAEBTfunction_buffer@234@AEAT5234@W4functor_manager_operation_type@234@@Z
	?manage@?$functor_manager@U?$DefaultMessageCreator@U?$diagnostics_@V?$allocator@X@std@@@sam_custom_messages@@@ros@@@function@detail@mwboost@@SAXAEBTfunction_buffer@234@AEAT5234@W4functor_manager_operation_type@234@@Z
	?manage@?$functor_manager@U?$DefaultMessageCreator@U?$hand_pos_@V?$allocator@X@std@@@sam_custom_messages@@@ros@@@function@detail@mwboost@@SAXAEBTfunction_buffer@234@AEAT5234@W4functor_manager_operation_type@234@@Z
	?manage@?$functor_manager@U?$DefaultMessageCreator@U?$object_state_@V?$allocator@X@std@@@sam_custom_messages@@@ros@@@function@detail@mwboost@@SAXAEBTfunction_buffer@234@AEAT5234@W4functor_manager_operation_type@234@@Z
	?manage@?$functor_manager@U?$DefaultMessageCreator@U?$robot_state_@V?$allocator@X@std@@@sam_custom_messages@@@ros@@@function@detail@mwboost@@SAXAEBTfunction_buffer@234@AEAT5234@W4functor_manager_operation_type@234@@Z
	?manage@?$functor_manager@U?$DefaultMessageCreator@U?$user_prediction_@V?$allocator@X@std@@@sam_custom_messages@@@ros@@@function@detail@mwboost@@SAXAEBTfunction_buffer@234@AEAT5234@W4functor_manager_operation_type@234@@Z
	?manage@?$functor_manager@V?$bind_t@VSerializedMessage@ros@@P6A?AV12@AEBU?$Object_@V?$allocator@X@std@@@sam_custom_messages@@@ZV?$list1@V?$reference_wrapper@U?$Object_@V?$allocator@X@std@@@sam_custom_messages@@@mwboost@@@_bi@mwboost@@@_bi@mwboost@@@function@detail@mwboost@@SAXAEBTfunction_buffer@234@AEAT5234@W4functor_manager_operation_type@234@@Z
	?manage@?$functor_manager@V?$bind_t@VSerializedMessage@ros@@P6A?AV12@AEBU?$capability_@V?$allocator@X@std@@@sam_custom_messages@@@ZV?$list1@V?$reference_wrapper@U?$capability_@V?$allocator@X@std@@@sam_custom_messages@@@mwboost@@@_bi@mwboost@@@_bi@mwboost@@@function@detail@mwboost@@SAXAEBTfunction_buffer@234@AEAT5234@W4functor_manager_operation_type@234@@Z
	?manage@?$functor_manager@V?$bind_t@VSerializedMessage@ros@@P6A?AV12@AEBU?$current_action_@V?$allocator@X@std@@@sam_custom_messages@@@ZV?$list1@V?$reference_wrapper@U?$current_action_@V?$allocator@X@std@@@sam_custom_messages@@@mwboost@@@_bi@mwboost@@@_bi@mwboost@@@function@detail@mwboost@@SAXAEBTfunction_buffer@234@AEAT5234@W4functor_manager_operation_type@234@@Z
	?manage@?$functor_manager@V?$bind_t@VSerializedMessage@ros@@P6A?AV12@AEBU?$diagnostics_@V?$allocator@X@std@@@sam_custom_messages@@@ZV?$list1@V?$reference_wrapper@U?$diagnostics_@V?$allocator@X@std@@@sam_custom_messages@@@mwboost@@@_bi@mwboost@@@_bi@mwboost@@@function@detail@mwboost@@SAXAEBTfunction_buffer@234@AEAT5234@W4functor_manager_operation_type@234@@Z
	?manage@?$functor_manager@V?$bind_t@VSerializedMessage@ros@@P6A?AV12@AEBU?$hand_pos_@V?$allocator@X@std@@@sam_custom_messages@@@ZV?$list1@V?$reference_wrapper@U?$hand_pos_@V?$allocator@X@std@@@sam_custom_messages@@@mwboost@@@_bi@mwboost@@@_bi@mwboost@@@function@detail@mwboost@@SAXAEBTfunction_buffer@234@AEAT5234@W4functor_manager_operation_type@234@@Z
	?manage@?$functor_manager@V?$bind_t@VSerializedMessage@ros@@P6A?AV12@AEBU?$object_state_@V?$allocator@X@std@@@sam_custom_messages@@@ZV?$list1@V?$reference_wrapper@U?$object_state_@V?$allocator@X@std@@@sam_custom_messages@@@mwboost@@@_bi@mwboost@@@_bi@mwboost@@@function@detail@mwboost@@SAXAEBTfunction_buffer@234@AEAT5234@W4functor_manager_operation_type@234@@Z
	?manage@?$functor_manager@V?$bind_t@VSerializedMessage@ros@@P6A?AV12@AEBU?$robot_state_@V?$allocator@X@std@@@sam_custom_messages@@@ZV?$list1@V?$reference_wrapper@U?$robot_state_@V?$allocator@X@std@@@sam_custom_messages@@@mwboost@@@_bi@mwboost@@@_bi@mwboost@@@function@detail@mwboost@@SAXAEBTfunction_buffer@234@AEAT5234@W4functor_manager_operation_type@234@@Z
	?manage@?$functor_manager@V?$bind_t@VSerializedMessage@ros@@P6A?AV12@AEBU?$user_prediction_@V?$allocator@X@std@@@sam_custom_messages@@@ZV?$list1@V?$reference_wrapper@U?$user_prediction_@V?$allocator@X@std@@@sam_custom_messages@@@mwboost@@@_bi@mwboost@@@_bi@mwboost@@@function@detail@mwboost@@SAXAEBTfunction_buffer@234@AEAT5234@W4functor_manager_operation_type@234@@Z
	?manage@?$functor_manager@V?$bind_t@XV?$mf1@XVsam_custom_messages_msg_Object_subscriber@@AEBV?$shared_ptr@$$CBU?$Object_@V?$allocator@X@std@@@sam_custom_messages@@@mwboost@@@_mfi@mwboost@@V?$list2@V?$value@PEAVsam_custom_messages_msg_Object_subscriber@@@_bi@mwboost@@U?$arg@$00@3@@_bi@3@@_bi@mwboost@@@function@detail@mwboost@@SAXAEBTfunction_buffer@234@AEAT5234@W4functor_manager_operation_type@234@@Z
	?manage@?$functor_manager@V?$bind_t@XV?$mf1@XVsam_custom_messages_msg_capability_subscriber@@AEBV?$shared_ptr@$$CBU?$capability_@V?$allocator@X@std@@@sam_custom_messages@@@mwboost@@@_mfi@mwboost@@V?$list2@V?$value@PEAVsam_custom_messages_msg_capability_subscriber@@@_bi@mwboost@@U?$arg@$00@3@@_bi@3@@_bi@mwboost@@@function@detail@mwboost@@SAXAEBTfunction_buffer@234@AEAT5234@W4functor_manager_operation_type@234@@Z
	?manage@?$functor_manager@V?$bind_t@XV?$mf1@XVsam_custom_messages_msg_current_action_subscriber@@AEBV?$shared_ptr@$$CBU?$current_action_@V?$allocator@X@std@@@sam_custom_messages@@@mwboost@@@_mfi@mwboost@@V?$list2@V?$value@PEAVsam_custom_messages_msg_current_action_subscriber@@@_bi@mwboost@@U?$arg@$00@3@@_bi@3@@_bi@mwboost@@@function@detail@mwboost@@SAXAEBTfunction_buffer@234@AEAT5234@W4functor_manager_operation_type@234@@Z
	?manage@?$functor_manager@V?$bind_t@XV?$mf1@XVsam_custom_messages_msg_diagnostics_subscriber@@AEBV?$shared_ptr@$$CBU?$diagnostics_@V?$allocator@X@std@@@sam_custom_messages@@@mwboost@@@_mfi@mwboost@@V?$list2@V?$value@PEAVsam_custom_messages_msg_diagnostics_subscriber@@@_bi@mwboost@@U?$arg@$00@3@@_bi@3@@_bi@mwboost@@@function@detail@mwboost@@SAXAEBTfunction_buffer@234@AEAT5234@W4functor_manager_operation_type@234@@Z
	?manage@?$functor_manager@V?$bind_t@XV?$mf1@XVsam_custom_messages_msg_hand_pos_subscriber@@AEBV?$shared_ptr@$$CBU?$hand_pos_@V?$allocator@X@std@@@sam_custom_messages@@@mwboost@@@_mfi@mwboost@@V?$list2@V?$value@PEAVsam_custom_messages_msg_hand_pos_subscriber@@@_bi@mwboost@@U?$arg@$00@3@@_bi@3@@_bi@mwboost@@@function@detail@mwboost@@SAXAEBTfunction_buffer@234@AEAT5234@W4functor_manager_operation_type@234@@Z
	?manage@?$functor_manager@V?$bind_t@XV?$mf1@XVsam_custom_messages_msg_object_state_subscriber@@AEBV?$shared_ptr@$$CBU?$object_state_@V?$allocator@X@std@@@sam_custom_messages@@@mwboost@@@_mfi@mwboost@@V?$list2@V?$value@PEAVsam_custom_messages_msg_object_state_subscriber@@@_bi@mwboost@@U?$arg@$00@3@@_bi@3@@_bi@mwboost@@@function@detail@mwboost@@SAXAEBTfunction_buffer@234@AEAT5234@W4functor_manager_operation_type@234@@Z
	?manage@?$functor_manager@V?$bind_t@XV?$mf1@XVsam_custom_messages_msg_robot_state_subscriber@@AEBV?$shared_ptr@$$CBU?$robot_state_@V?$allocator@X@std@@@sam_custom_messages@@@mwboost@@@_mfi@mwboost@@V?$list2@V?$value@PEAVsam_custom_messages_msg_robot_state_subscriber@@@_bi@mwboost@@U?$arg@$00@3@@_bi@3@@_bi@mwboost@@@function@detail@mwboost@@SAXAEBTfunction_buffer@234@AEAT5234@W4functor_manager_operation_type@234@@Z
	?manage@?$functor_manager@V?$bind_t@XV?$mf1@XVsam_custom_messages_msg_user_prediction_subscriber@@AEBV?$shared_ptr@$$CBU?$user_prediction_@V?$allocator@X@std@@@sam_custom_messages@@@mwboost@@@_mfi@mwboost@@V?$list2@V?$value@PEAVsam_custom_messages_msg_user_prediction_subscriber@@@_bi@mwboost@@U?$arg@$00@3@@_bi@3@@_bi@mwboost@@@function@detail@mwboost@@SAXAEBTfunction_buffer@234@AEAT5234@W4functor_manager_operation_type@234@@Z
	?manage@?$functor_manager@V?$function@$$A6AXAEBV?$shared_ptr@$$CBU?$Object_@V?$allocator@X@std@@@sam_custom_messages@@@mwboost@@@Z@mwboost@@@function@detail@mwboost@@SAXAEBTfunction_buffer@234@AEAT5234@W4functor_manager_operation_type@234@@Z
	?manage@?$functor_manager@V?$function@$$A6AXAEBV?$shared_ptr@$$CBU?$capability_@V?$allocator@X@std@@@sam_custom_messages@@@mwboost@@@Z@mwboost@@@function@detail@mwboost@@SAXAEBTfunction_buffer@234@AEAT5234@W4functor_manager_operation_type@234@@Z
	?manage@?$functor_manager@V?$function@$$A6AXAEBV?$shared_ptr@$$CBU?$current_action_@V?$allocator@X@std@@@sam_custom_messages@@@mwboost@@@Z@mwboost@@@function@detail@mwboost@@SAXAEBTfunction_buffer@234@AEAT5234@W4functor_manager_operation_type@234@@Z
	?manage@?$functor_manager@V?$function@$$A6AXAEBV?$shared_ptr@$$CBU?$diagnostics_@V?$allocator@X@std@@@sam_custom_messages@@@mwboost@@@Z@mwboost@@@function@detail@mwboost@@SAXAEBTfunction_buffer@234@AEAT5234@W4functor_manager_operation_type@234@@Z
	?manage@?$functor_manager@V?$function@$$A6AXAEBV?$shared_ptr@$$CBU?$hand_pos_@V?$allocator@X@std@@@sam_custom_messages@@@mwboost@@@Z@mwboost@@@function@detail@mwboost@@SAXAEBTfunction_buffer@234@AEAT5234@W4functor_manager_operation_type@234@@Z
	?manage@?$functor_manager@V?$function@$$A6AXAEBV?$shared_ptr@$$CBU?$object_state_@V?$allocator@X@std@@@sam_custom_messages@@@mwboost@@@Z@mwboost@@@function@detail@mwboost@@SAXAEBTfunction_buffer@234@AEAT5234@W4functor_manager_operation_type@234@@Z
	?manage@?$functor_manager@V?$function@$$A6AXAEBV?$shared_ptr@$$CBU?$robot_state_@V?$allocator@X@std@@@sam_custom_messages@@@mwboost@@@Z@mwboost@@@function@detail@mwboost@@SAXAEBTfunction_buffer@234@AEAT5234@W4functor_manager_operation_type@234@@Z
	?manage@?$functor_manager@V?$function@$$A6AXAEBV?$shared_ptr@$$CBU?$user_prediction_@V?$allocator@X@std@@@sam_custom_messages@@@mwboost@@@Z@mwboost@@@function@detail@mwboost@@SAXAEBTfunction_buffer@234@AEAT5234@W4functor_manager_operation_type@234@@Z
	?manage_small@?$functor_manager_common@U?$DefaultMessageCreator@U?$Object_@V?$allocator@X@std@@@sam_custom_messages@@@ros@@@function@detail@mwboost@@SAXAEBTfunction_buffer@234@AEAT5234@W4functor_manager_operation_type@234@@Z
	?manage_small@?$functor_manager_common@U?$DefaultMessageCreator@U?$capability_@V?$allocator@X@std@@@sam_custom_messages@@@ros@@@function@detail@mwboost@@SAXAEBTfunction_buffer@234@AEAT5234@W4functor_manager_operation_type@234@@Z
	?manage_small@?$functor_manager_common@U?$DefaultMessageCreator@U?$current_action_@V?$allocator@X@std@@@sam_custom_messages@@@ros@@@function@detail@mwboost@@SAXAEBTfunction_buffer@234@AEAT5234@W4functor_manager_operation_type@234@@Z
	?manage_small@?$functor_manager_common@U?$DefaultMessageCreator@U?$diagnostics_@V?$allocator@X@std@@@sam_custom_messages@@@ros@@@function@detail@mwboost@@SAXAEBTfunction_buffer@234@AEAT5234@W4functor_manager_operation_type@234@@Z
	?manage_small@?$functor_manager_common@U?$DefaultMessageCreator@U?$hand_pos_@V?$allocator@X@std@@@sam_custom_messages@@@ros@@@function@detail@mwboost@@SAXAEBTfunction_buffer@234@AEAT5234@W4functor_manager_operation_type@234@@Z
	?manage_small@?$functor_manager_common@U?$DefaultMessageCreator@U?$object_state_@V?$allocator@X@std@@@sam_custom_messages@@@ros@@@function@detail@mwboost@@SAXAEBTfunction_buffer@234@AEAT5234@W4functor_manager_operation_type@234@@Z
	?manage_small@?$functor_manager_common@U?$DefaultMessageCreator@U?$robot_state_@V?$allocator@X@std@@@sam_custom_messages@@@ros@@@function@detail@mwboost@@SAXAEBTfunction_buffer@234@AEAT5234@W4functor_manager_operation_type@234@@Z
	?manage_small@?$functor_manager_common@U?$DefaultMessageCreator@U?$user_prediction_@V?$allocator@X@std@@@sam_custom_messages@@@ros@@@function@detail@mwboost@@SAXAEBTfunction_buffer@234@AEAT5234@W4functor_manager_operation_type@234@@Z
	?manage_small@?$functor_manager_common@V?$bind_t@VSerializedMessage@ros@@P6A?AV12@AEBU?$Object_@V?$allocator@X@std@@@sam_custom_messages@@@ZV?$list1@V?$reference_wrapper@U?$Object_@V?$allocator@X@std@@@sam_custom_messages@@@mwboost@@@_bi@mwboost@@@_bi@mwboost@@@function@detail@mwboost@@SAXAEBTfunction_buffer@234@AEAT5234@W4functor_manager_operation_type@234@@Z
	?manage_small@?$functor_manager_common@V?$bind_t@VSerializedMessage@ros@@P6A?AV12@AEBU?$capability_@V?$allocator@X@std@@@sam_custom_messages@@@ZV?$list1@V?$reference_wrapper@U?$capability_@V?$allocator@X@std@@@sam_custom_messages@@@mwboost@@@_bi@mwboost@@@_bi@mwboost@@@function@detail@mwboost@@SAXAEBTfunction_buffer@234@AEAT5234@W4functor_manager_operation_type@234@@Z
	?manage_small@?$functor_manager_common@V?$bind_t@VSerializedMessage@ros@@P6A?AV12@AEBU?$current_action_@V?$allocator@X@std@@@sam_custom_messages@@@ZV?$list1@V?$reference_wrapper@U?$current_action_@V?$allocator@X@std@@@sam_custom_messages@@@mwboost@@@_bi@mwboost@@@_bi@mwboost@@@function@detail@mwboost@@SAXAEBTfunction_buffer@234@AEAT5234@W4functor_manager_operation_type@234@@Z
	?manage_small@?$functor_manager_common@V?$bind_t@VSerializedMessage@ros@@P6A?AV12@AEBU?$diagnostics_@V?$allocator@X@std@@@sam_custom_messages@@@ZV?$list1@V?$reference_wrapper@U?$diagnostics_@V?$allocator@X@std@@@sam_custom_messages@@@mwboost@@@_bi@mwboost@@@_bi@mwboost@@@function@detail@mwboost@@SAXAEBTfunction_buffer@234@AEAT5234@W4functor_manager_operation_type@234@@Z
	?manage_small@?$functor_manager_common@V?$bind_t@VSerializedMessage@ros@@P6A?AV12@AEBU?$hand_pos_@V?$allocator@X@std@@@sam_custom_messages@@@ZV?$list1@V?$reference_wrapper@U?$hand_pos_@V?$allocator@X@std@@@sam_custom_messages@@@mwboost@@@_bi@mwboost@@@_bi@mwboost@@@function@detail@mwboost@@SAXAEBTfunction_buffer@234@AEAT5234@W4functor_manager_operation_type@234@@Z
	?manage_small@?$functor_manager_common@V?$bind_t@VSerializedMessage@ros@@P6A?AV12@AEBU?$object_state_@V?$allocator@X@std@@@sam_custom_messages@@@ZV?$list1@V?$reference_wrapper@U?$object_state_@V?$allocator@X@std@@@sam_custom_messages@@@mwboost@@@_bi@mwboost@@@_bi@mwboost@@@function@detail@mwboost@@SAXAEBTfunction_buffer@234@AEAT5234@W4functor_manager_operation_type@234@@Z
	?manage_small@?$functor_manager_common@V?$bind_t@VSerializedMessage@ros@@P6A?AV12@AEBU?$robot_state_@V?$allocator@X@std@@@sam_custom_messages@@@ZV?$list1@V?$reference_wrapper@U?$robot_state_@V?$allocator@X@std@@@sam_custom_messages@@@mwboost@@@_bi@mwboost@@@_bi@mwboost@@@function@detail@mwboost@@SAXAEBTfunction_buffer@234@AEAT5234@W4functor_manager_operation_type@234@@Z
	?manage_small@?$functor_manager_common@V?$bind_t@VSerializedMessage@ros@@P6A?AV12@AEBU?$user_prediction_@V?$allocator@X@std@@@sam_custom_messages@@@ZV?$list1@V?$reference_wrapper@U?$user_prediction_@V?$allocator@X@std@@@sam_custom_messages@@@mwboost@@@_bi@mwboost@@@_bi@mwboost@@@function@detail@mwboost@@SAXAEBTfunction_buffer@234@AEAT5234@W4functor_manager_operation_type@234@@Z
	?manage_small@?$functor_manager_common@V?$bind_t@XV?$mf1@XVsam_custom_messages_msg_Object_subscriber@@AEBV?$shared_ptr@$$CBU?$Object_@V?$allocator@X@std@@@sam_custom_messages@@@mwboost@@@_mfi@mwboost@@V?$list2@V?$value@PEAVsam_custom_messages_msg_Object_subscriber@@@_bi@mwboost@@U?$arg@$00@3@@_bi@3@@_bi@mwboost@@@function@detail@mwboost@@SAXAEBTfunction_buffer@234@AEAT5234@W4functor_manager_operation_type@234@@Z
	?manage_small@?$functor_manager_common@V?$bind_t@XV?$mf1@XVsam_custom_messages_msg_capability_subscriber@@AEBV?$shared_ptr@$$CBU?$capability_@V?$allocator@X@std@@@sam_custom_messages@@@mwboost@@@_mfi@mwboost@@V?$list2@V?$value@PEAVsam_custom_messages_msg_capability_subscriber@@@_bi@mwboost@@U?$arg@$00@3@@_bi@3@@_bi@mwboost@@@function@detail@mwboost@@SAXAEBTfunction_buffer@234@AEAT5234@W4functor_manager_operation_type@234@@Z
	?manage_small@?$functor_manager_common@V?$bind_t@XV?$mf1@XVsam_custom_messages_msg_current_action_subscriber@@AEBV?$shared_ptr@$$CBU?$current_action_@V?$allocator@X@std@@@sam_custom_messages@@@mwboost@@@_mfi@mwboost@@V?$list2@V?$value@PEAVsam_custom_messages_msg_current_action_subscriber@@@_bi@mwboost@@U?$arg@$00@3@@_bi@3@@_bi@mwboost@@@function@detail@mwboost@@SAXAEBTfunction_buffer@234@AEAT5234@W4functor_manager_operation_type@234@@Z
	?manage_small@?$functor_manager_common@V?$bind_t@XV?$mf1@XVsam_custom_messages_msg_diagnostics_subscriber@@AEBV?$shared_ptr@$$CBU?$diagnostics_@V?$allocator@X@std@@@sam_custom_messages@@@mwboost@@@_mfi@mwboost@@V?$list2@V?$value@PEAVsam_custom_messages_msg_diagnostics_subscriber@@@_bi@mwboost@@U?$arg@$00@3@@_bi@3@@_bi@mwboost@@@function@detail@mwboost@@SAXAEBTfunction_buffer@234@AEAT5234@W4functor_manager_operation_type@234@@Z
	?manage_small@?$functor_manager_common@V?$bind_t@XV?$mf1@XVsam_custom_messages_msg_hand_pos_subscriber@@AEBV?$shared_ptr@$$CBU?$hand_pos_@V?$allocator@X@std@@@sam_custom_messages@@@mwboost@@@_mfi@mwboost@@V?$list2@V?$value@PEAVsam_custom_messages_msg_hand_pos_subscriber@@@_bi@mwboost@@U?$arg@$00@3@@_bi@3@@_bi@mwboost@@@function@detail@mwboost@@SAXAEBTfunction_buffer@234@AEAT5234@W4functor_manager_operation_type@234@@Z
	?manage_small@?$functor_manager_common@V?$bind_t@XV?$mf1@XVsam_custom_messages_msg_object_state_subscriber@@AEBV?$shared_ptr@$$CBU?$object_state_@V?$allocator@X@std@@@sam_custom_messages@@@mwboost@@@_mfi@mwboost@@V?$list2@V?$value@PEAVsam_custom_messages_msg_object_state_subscriber@@@_bi@mwboost@@U?$arg@$00@3@@_bi@3@@_bi@mwboost@@@function@detail@mwboost@@SAXAEBTfunction_buffer@234@AEAT5234@W4functor_manager_operation_type@234@@Z
	?manage_small@?$functor_manager_common@V?$bind_t@XV?$mf1@XVsam_custom_messages_msg_robot_state_subscriber@@AEBV?$shared_ptr@$$CBU?$robot_state_@V?$allocator@X@std@@@sam_custom_messages@@@mwboost@@@_mfi@mwboost@@V?$list2@V?$value@PEAVsam_custom_messages_msg_robot_state_subscriber@@@_bi@mwboost@@U?$arg@$00@3@@_bi@3@@_bi@mwboost@@@function@detail@mwboost@@SAXAEBTfunction_buffer@234@AEAT5234@W4functor_manager_operation_type@234@@Z
	?manage_small@?$functor_manager_common@V?$bind_t@XV?$mf1@XVsam_custom_messages_msg_user_prediction_subscriber@@AEBV?$shared_ptr@$$CBU?$user_prediction_@V?$allocator@X@std@@@sam_custom_messages@@@mwboost@@@_mfi@mwboost@@V?$list2@V?$value@PEAVsam_custom_messages_msg_user_prediction_subscriber@@@_bi@mwboost@@U?$arg@$00@3@@_bi@3@@_bi@mwboost@@@function@detail@mwboost@@SAXAEBTfunction_buffer@234@AEAT5234@W4functor_manager_operation_type@234@@Z
	?manager@?$functor_manager@V?$function@$$A6AXAEBV?$shared_ptr@$$CBU?$Object_@V?$allocator@X@std@@@sam_custom_messages@@@mwboost@@@Z@mwboost@@@function@detail@mwboost@@CAXAEBTfunction_buffer@234@AEAT5234@W4functor_manager_operation_type@234@U?$integral_constant@_N$0A@@4@@Z
	?manager@?$functor_manager@V?$function@$$A6AXAEBV?$shared_ptr@$$CBU?$capability_@V?$allocator@X@std@@@sam_custom_messages@@@mwboost@@@Z@mwboost@@@function@detail@mwboost@@CAXAEBTfunction_buffer@234@AEAT5234@W4functor_manager_operation_type@234@U?$integral_constant@_N$0A@@4@@Z
	?manager@?$functor_manager@V?$function@$$A6AXAEBV?$shared_ptr@$$CBU?$current_action_@V?$allocator@X@std@@@sam_custom_messages@@@mwboost@@@Z@mwboost@@@function@detail@mwboost@@CAXAEBTfunction_buffer@234@AEAT5234@W4functor_manager_operation_type@234@U?$integral_constant@_N$0A@@4@@Z
	?manager@?$functor_manager@V?$function@$$A6AXAEBV?$shared_ptr@$$CBU?$diagnostics_@V?$allocator@X@std@@@sam_custom_messages@@@mwboost@@@Z@mwboost@@@function@detail@mwboost@@CAXAEBTfunction_buffer@234@AEAT5234@W4functor_manager_operation_type@234@U?$integral_constant@_N$0A@@4@@Z
	?manager@?$functor_manager@V?$function@$$A6AXAEBV?$shared_ptr@$$CBU?$hand_pos_@V?$allocator@X@std@@@sam_custom_messages@@@mwboost@@@Z@mwboost@@@function@detail@mwboost@@CAXAEBTfunction_buffer@234@AEAT5234@W4functor_manager_operation_type@234@U?$integral_constant@_N$0A@@4@@Z
	?manager@?$functor_manager@V?$function@$$A6AXAEBV?$shared_ptr@$$CBU?$object_state_@V?$allocator@X@std@@@sam_custom_messages@@@mwboost@@@Z@mwboost@@@function@detail@mwboost@@CAXAEBTfunction_buffer@234@AEAT5234@W4functor_manager_operation_type@234@U?$integral_constant@_N$0A@@4@@Z
	?manager@?$functor_manager@V?$function@$$A6AXAEBV?$shared_ptr@$$CBU?$robot_state_@V?$allocator@X@std@@@sam_custom_messages@@@mwboost@@@Z@mwboost@@@function@detail@mwboost@@CAXAEBTfunction_buffer@234@AEAT5234@W4functor_manager_operation_type@234@U?$integral_constant@_N$0A@@4@@Z
	?manager@?$functor_manager@V?$function@$$A6AXAEBV?$shared_ptr@$$CBU?$user_prediction_@V?$allocator@X@std@@@sam_custom_messages@@@mwboost@@@Z@mwboost@@@function@detail@mwboost@@CAXAEBTfunction_buffer@234@AEAT5234@W4functor_manager_operation_type@234@U?$integral_constant@_N$0A@@4@@Z
	?mark_waiting_and_try_lock@basic_timed_mutex@detail@mwboost@@QEAAXAEAJ@Z
	?max_size@?$basic_string@DU?$char_traits@D@std@@V?$allocator@D@2@@std@@QEBA_KXZ
	?max_size@?$vector@NV?$allocator@N@std@@@std@@QEBA_KXZ
	?max_size@?$vector@U?$KeyValue_@V?$allocator@X@std@@@diagnostic_msgs@@V?$allocator@U?$KeyValue_@V?$allocator@X@std@@@diagnostic_msgs@@@std@@@std@@QEBA_KXZ
	?max_size@?$vector@V?$basic_string@DU?$char_traits@D@std@@V?$allocator@D@2@@std@@V?$allocator@V?$basic_string@DU?$char_traits@D@std@@V?$allocator@D@2@@std@@@2@@std@@QEBA_KXZ
	?message@generic_error_category@detail@system@mwboost@@UEBA?AV?$basic_string@DU?$char_traits@D@std@@V?$allocator@D@2@@std@@H@Z
	?message@generic_error_category@detail@system@mwboost@@UEBAPEBDHPEAD_K@Z
	?message@system_error_category@detail@system@mwboost@@UEBA?AV?$basic_string@DU?$char_traits@D@std@@V?$allocator@D@2@@std@@H@Z
	?message@system_error_category@detail@system@mwboost@@UEBAPEBDHPEAD_K@Z
	?move_assign@?$function0@V?$shared_ptr@U?$Object_@V?$allocator@X@std@@@sam_custom_messages@@@mwboost@@@mwboost@@AEAAXAEAV12@@Z
	?move_assign@?$function0@V?$shared_ptr@U?$capability_@V?$allocator@X@std@@@sam_custom_messages@@@mwboost@@@mwboost@@AEAAXAEAV12@@Z
	?move_assign@?$function0@V?$shared_ptr@U?$current_action_@V?$allocator@X@std@@@sam_custom_messages@@@mwboost@@@mwboost@@AEAAXAEAV12@@Z
	?move_assign@?$function0@V?$shared_ptr@U?$diagnostics_@V?$allocator@X@std@@@sam_custom_messages@@@mwboost@@@mwboost@@AEAAXAEAV12@@Z
	?move_assign@?$function0@V?$shared_ptr@U?$hand_pos_@V?$allocator@X@std@@@sam_custom_messages@@@mwboost@@@mwboost@@AEAAXAEAV12@@Z
	?move_assign@?$function0@V?$shared_ptr@U?$object_state_@V?$allocator@X@std@@@sam_custom_messages@@@mwboost@@@mwboost@@AEAAXAEAV12@@Z
	?move_assign@?$function0@V?$shared_ptr@U?$robot_state_@V?$allocator@X@std@@@sam_custom_messages@@@mwboost@@@mwboost@@AEAAXAEAV12@@Z
	?move_assign@?$function0@V?$shared_ptr@U?$user_prediction_@V?$allocator@X@std@@@sam_custom_messages@@@mwboost@@@mwboost@@AEAAXAEAV12@@Z
	?move_assign@?$function1@XAEBVSingleSubscriberPublisher@ros@@@mwboost@@AEAAXAEAV12@@Z
	?name@generic_error_category@detail@system@mwboost@@UEBAPEBDXZ
	?name@system_error_category@detail@system@mwboost@@UEBAPEBDXZ
	?operator_fn@?$sp_ms_deleter@U?$Object_@V?$allocator@X@std@@@sam_custom_messages@@@detail@mwboost@@SAXPEAU?$Object_@V?$allocator@X@std@@@sam_custom_messages@@@Z
	?operator_fn@?$sp_ms_deleter@U?$capability_@V?$allocator@X@std@@@sam_custom_messages@@@detail@mwboost@@SAXPEAU?$capability_@V?$allocator@X@std@@@sam_custom_messages@@@Z
	?operator_fn@?$sp_ms_deleter@U?$current_action_@V?$allocator@X@std@@@sam_custom_messages@@@detail@mwboost@@SAXPEAU?$current_action_@V?$allocator@X@std@@@sam_custom_messages@@@Z
	?operator_fn@?$sp_ms_deleter@U?$diagnostics_@V?$allocator@X@std@@@sam_custom_messages@@@detail@mwboost@@SAXPEAU?$diagnostics_@V?$allocator@X@std@@@sam_custom_messages@@@Z
	?operator_fn@?$sp_ms_deleter@U?$hand_pos_@V?$allocator@X@std@@@sam_custom_messages@@@detail@mwboost@@SAXPEAU?$hand_pos_@V?$allocator@X@std@@@sam_custom_messages@@@Z
	?operator_fn@?$sp_ms_deleter@U?$object_state_@V?$allocator@X@std@@@sam_custom_messages@@@detail@mwboost@@SAXPEAU?$object_state_@V?$allocator@X@std@@@sam_custom_messages@@@Z
	?operator_fn@?$sp_ms_deleter@U?$robot_state_@V?$allocator@X@std@@@sam_custom_messages@@@detail@mwboost@@SAXPEAU?$robot_state_@V?$allocator@X@std@@@sam_custom_messages@@@Z
	?operator_fn@?$sp_ms_deleter@U?$user_prediction_@V?$allocator@X@std@@@sam_custom_messages@@@detail@mwboost@@SAXPEAU?$user_prediction_@V?$allocator@X@std@@@sam_custom_messages@@@Z
	?operator_fn@?$sp_ms_deleter@V?$SubscriptionCallbackHelperT@AEBV?$shared_ptr@$$CBU?$Object_@V?$allocator@X@std@@@sam_custom_messages@@@mwboost@@X@ros@@@detail@mwboost@@SAXPEAV?$SubscriptionCallbackHelperT@AEBV?$shared_ptr@$$CBU?$Object_@V?$allocator@X@std@@@sam_custom_messages@@@mwboost@@X@ros@@@Z
	?operator_fn@?$sp_ms_deleter@V?$SubscriptionCallbackHelperT@AEBV?$shared_ptr@$$CBU?$capability_@V?$allocator@X@std@@@sam_custom_messages@@@mwboost@@X@ros@@@detail@mwboost@@SAXPEAV?$SubscriptionCallbackHelperT@AEBV?$shared_ptr@$$CBU?$capability_@V?$allocator@X@std@@@sam_custom_messages@@@mwboost@@X@ros@@@Z
	?operator_fn@?$sp_ms_deleter@V?$SubscriptionCallbackHelperT@AEBV?$shared_ptr@$$CBU?$current_action_@V?$allocator@X@std@@@sam_custom_messages@@@mwboost@@X@ros@@@detail@mwboost@@SAXPEAV?$SubscriptionCallbackHelperT@AEBV?$shared_ptr@$$CBU?$current_action_@V?$allocator@X@std@@@sam_custom_messages@@@mwboost@@X@ros@@@Z
	?operator_fn@?$sp_ms_deleter@V?$SubscriptionCallbackHelperT@AEBV?$shared_ptr@$$CBU?$diagnostics_@V?$allocator@X@std@@@sam_custom_messages@@@mwboost@@X@ros@@@detail@mwboost@@SAXPEAV?$SubscriptionCallbackHelperT@AEBV?$shared_ptr@$$CBU?$diagnostics_@V?$allocator@X@std@@@sam_custom_messages@@@mwboost@@X@ros@@@Z
	?operator_fn@?$sp_ms_deleter@V?$SubscriptionCallbackHelperT@AEBV?$shared_ptr@$$CBU?$hand_pos_@V?$allocator@X@std@@@sam_custom_messages@@@mwboost@@X@ros@@@detail@mwboost@@SAXPEAV?$SubscriptionCallbackHelperT@AEBV?$shared_ptr@$$CBU?$hand_pos_@V?$allocator@X@std@@@sam_custom_messages@@@mwboost@@X@ros@@@Z
	?operator_fn@?$sp_ms_deleter@V?$SubscriptionCallbackHelperT@AEBV?$shared_ptr@$$CBU?$object_state_@V?$allocator@X@std@@@sam_custom_messages@@@mwboost@@X@ros@@@detail@mwboost@@SAXPEAV?$SubscriptionCallbackHelperT@AEBV?$shared_ptr@$$CBU?$object_state_@V?$allocator@X@std@@@sam_custom_messages@@@mwboost@@X@ros@@@Z
	?operator_fn@?$sp_ms_deleter@V?$SubscriptionCallbackHelperT@AEBV?$shared_ptr@$$CBU?$robot_state_@V?$allocator@X@std@@@sam_custom_messages@@@mwboost@@X@ros@@@detail@mwboost@@SAXPEAV?$SubscriptionCallbackHelperT@AEBV?$shared_ptr@$$CBU?$robot_state_@V?$allocator@X@std@@@sam_custom_messages@@@mwboost@@X@ros@@@Z
	?operator_fn@?$sp_ms_deleter@V?$SubscriptionCallbackHelperT@AEBV?$shared_ptr@$$CBU?$user_prediction_@V?$allocator@X@std@@@sam_custom_messages@@@mwboost@@X@ros@@@detail@mwboost@@SAXPEAV?$SubscriptionCallbackHelperT@AEBV?$shared_ptr@$$CBU?$user_prediction_@V?$allocator@X@std@@@sam_custom_messages@@@mwboost@@X@ros@@@Z
	?publish@MATLABPublisherInterface@@UEAA_NAEBVStructArray@data@matlab@@@Z
	?publish@sam_custom_messages_msg_Object_publisher@@UEAA_NAEBVStructArray@data@matlab@@@Z
	?publish@sam_custom_messages_msg_capability_publisher@@UEAA_NAEBVStructArray@data@matlab@@@Z
	?publish@sam_custom_messages_msg_current_action_publisher@@UEAA_NAEBVStructArray@data@matlab@@@Z
	?publish@sam_custom_messages_msg_diagnostics_publisher@@UEAA_NAEBVStructArray@data@matlab@@@Z
	?publish@sam_custom_messages_msg_hand_pos_publisher@@UEAA_NAEBVStructArray@data@matlab@@@Z
	?publish@sam_custom_messages_msg_object_state_publisher@@UEAA_NAEBVStructArray@data@matlab@@@Z
	?publish@sam_custom_messages_msg_robot_state_publisher@@UEAA_NAEBVStructArray@data@matlab@@@Z
	?publish@sam_custom_messages_msg_user_prediction_publisher@@UEAA_NAEBVStructArray@data@matlab@@@Z
	?push_back@?$basic_string@DU?$char_traits@D@std@@V?$allocator@D@2@@std@@QEAAXD@Z
	?rbegin@?$vector@U?$pair@W4FunctionType@detail@data@matlab@@V?$basic_string@DU?$char_traits@D@std@@V?$allocator@D@2@@std@@@std@@V?$allocator@U?$pair@W4FunctionType@detail@data@matlab@@V?$basic_string@DU?$char_traits@D@std@@V?$allocator@D@2@@std@@@std@@@2@@std@@QEBA?AV?$reverse_iterator@V?$_Vector_const_iterator@V?$_Vector_val@U?$_Simple_types@U?$pair@W4FunctionType@detail@data@matlab@@V?$basic_string@DU?$char_traits@D@std@@V?$allocator@D@2@@std@@@std@@@std@@@std@@@std@@@2@XZ
	?release@?$refcount_ptr@Uerror_info_container@exception_detail@mwboost@@@exception_detail@mwboost@@AEAAXXZ
	?release@sp_counted_base@detail@mwboost@@QEAAXXZ
	?rend@?$vector@U?$pair@W4FunctionType@detail@data@matlab@@V?$basic_string@DU?$char_traits@D@std@@V?$allocator@D@2@@std@@@std@@V?$allocator@U?$pair@W4FunctionType@detail@data@matlab@@V?$basic_string@DU?$char_traits@D@std@@V?$allocator@D@2@@std@@@std@@@2@@std@@QEBA?AV?$reverse_iterator@V?$_Vector_const_iterator@V?$_Vector_val@U?$_Simple_types@U?$pair@W4FunctionType@detail@data@matlab@@V?$basic_string@DU?$char_traits@D@std@@V?$allocator@D@2@@std@@@std@@@std@@@std@@@std@@@2@XZ
	?resize@?$basic_string@DU?$char_traits@D@std@@V?$allocator@D@2@@std@@QEAAX_KD@Z
	?rethrow@?$clone_impl@U?$error_info_injector@Vbad_function_call@mwboost@@@exception_detail@mwboost@@@exception_detail@mwboost@@$0PPPPPPPM@A@EBAXXZ
	?rethrow@?$clone_impl@U?$error_info_injector@Vbad_function_call@mwboost@@@exception_detail@mwboost@@@exception_detail@mwboost@@EEBAXXZ
	?rethrow@?$clone_impl@U?$error_info_injector@Vthread_resource_error@mwboost@@@exception_detail@mwboost@@@exception_detail@mwboost@@$0PPPPPPPM@A@EBAXXZ
	?rethrow@?$clone_impl@U?$error_info_injector@Vthread_resource_error@mwboost@@@exception_detail@mwboost@@@exception_detail@mwboost@@EEBAXXZ
	?serializedLength@?$VectorSerializer@U?$KeyValue_@V?$allocator@X@std@@@diagnostic_msgs@@V?$allocator@U?$KeyValue_@V?$allocator@X@std@@@diagnostic_msgs@@@std@@X@serialization@ros@@SAIAEBV?$vector@U?$KeyValue_@V?$allocator@X@std@@@diagnostic_msgs@@V?$allocator@U?$KeyValue_@V?$allocator@X@std@@@diagnostic_msgs@@@std@@@std@@@Z
	?serializedLength@?$VectorSerializer@V?$basic_string@DU?$char_traits@D@std@@V?$allocator@D@2@@std@@V?$allocator@V?$basic_string@DU?$char_traits@D@std@@V?$allocator@D@2@@std@@@2@X@serialization@ros@@SAIAEBV?$vector@V?$basic_string@DU?$char_traits@D@std@@V?$allocator@D@2@@std@@V?$allocator@V?$basic_string@DU?$char_traits@D@std@@V?$allocator@D@2@@std@@@2@@std@@@Z
	?size@?$vector@NV?$allocator@N@std@@@std@@QEBA_KXZ
	?size@?$vector@U?$KeyValue_@V?$allocator@X@std@@@diagnostic_msgs@@V?$allocator@U?$KeyValue_@V?$allocator@X@std@@@diagnostic_msgs@@@std@@@std@@QEBA_KXZ
	?size@?$vector@V?$basic_string@DU?$char_traits@D@std@@V?$allocator@D@2@@std@@V?$allocator@V?$basic_string@DU?$char_traits@D@std@@V?$allocator@D@2@@std@@@2@@std@@QEBA_KXZ
	?sp_enable_shared_from_this@detail@mwboost@@YAXZZ
	?swap@?$function0@V?$shared_ptr@U?$Object_@V?$allocator@X@std@@@sam_custom_messages@@@mwboost@@@mwboost@@QEAAXAEAV12@@Z
	?swap@?$function0@V?$shared_ptr@U?$capability_@V?$allocator@X@std@@@sam_custom_messages@@@mwboost@@@mwboost@@QEAAXAEAV12@@Z
	?swap@?$function0@V?$shared_ptr@U?$current_action_@V?$allocator@X@std@@@sam_custom_messages@@@mwboost@@@mwboost@@QEAAXAEAV12@@Z
	?swap@?$function0@V?$shared_ptr@U?$diagnostics_@V?$allocator@X@std@@@sam_custom_messages@@@mwboost@@@mwboost@@QEAAXAEAV12@@Z
	?swap@?$function0@V?$shared_ptr@U?$hand_pos_@V?$allocator@X@std@@@sam_custom_messages@@@mwboost@@@mwboost@@QEAAXAEAV12@@Z
	?swap@?$function0@V?$shared_ptr@U?$object_state_@V?$allocator@X@std@@@sam_custom_messages@@@mwboost@@@mwboost@@QEAAXAEAV12@@Z
	?swap@?$function0@V?$shared_ptr@U?$robot_state_@V?$allocator@X@std@@@sam_custom_messages@@@mwboost@@@mwboost@@QEAAXAEAV12@@Z
	?swap@?$function0@V?$shared_ptr@U?$user_prediction_@V?$allocator@X@std@@@sam_custom_messages@@@mwboost@@@mwboost@@QEAAXAEAV12@@Z
	?swap@?$function1@XAEBVSingleSubscriberPublisher@ros@@@mwboost@@QEAAXAEAV12@@Z
	?swap@?$shared_array@E@mwboost@@QEAAXAEAV12@@Z
	?swap@?$shared_ptr@$$CBU?$Object_@V?$allocator@X@std@@@sam_custom_messages@@@mwboost@@QEAAXAEAV12@@Z
	?swap@?$shared_ptr@$$CBU?$capability_@V?$allocator@X@std@@@sam_custom_messages@@@mwboost@@QEAAXAEAV12@@Z
	?swap@?$shared_ptr@$$CBU?$current_action_@V?$allocator@X@std@@@sam_custom_messages@@@mwboost@@QEAAXAEAV12@@Z
	?swap@?$shared_ptr@$$CBU?$diagnostics_@V?$allocator@X@std@@@sam_custom_messages@@@mwboost@@QEAAXAEAV12@@Z
	?swap@?$shared_ptr@$$CBU?$hand_pos_@V?$allocator@X@std@@@sam_custom_messages@@@mwboost@@QEAAXAEAV12@@Z
	?swap@?$shared_ptr@$$CBU?$object_state_@V?$allocator@X@std@@@sam_custom_messages@@@mwboost@@QEAAXAEAV12@@Z
	?swap@?$shared_ptr@$$CBU?$robot_state_@V?$allocator@X@std@@@sam_custom_messages@@@mwboost@@QEAAXAEAV12@@Z
	?swap@?$shared_ptr@$$CBU?$user_prediction_@V?$allocator@X@std@@@sam_custom_messages@@@mwboost@@QEAAXAEAV12@@Z
	?swap@?$shared_ptr@$$CBX@mwboost@@QEAAXAEAV12@@Z
	?swap@?$shared_ptr@U?$Object_@V?$allocator@X@std@@@sam_custom_messages@@@mwboost@@QEAAXAEAV12@@Z
	?swap@?$shared_ptr@U?$capability_@V?$allocator@X@std@@@sam_custom_messages@@@mwboost@@QEAAXAEAV12@@Z
	?swap@?$shared_ptr@U?$current_action_@V?$allocator@X@std@@@sam_custom_messages@@@mwboost@@QEAAXAEAV12@@Z
	?swap@?$shared_ptr@U?$diagnostics_@V?$allocator@X@std@@@sam_custom_messages@@@mwboost@@QEAAXAEAV12@@Z
	?swap@?$shared_ptr@U?$hand_pos_@V?$allocator@X@std@@@sam_custom_messages@@@mwboost@@QEAAXAEAV12@@Z
	?swap@?$shared_ptr@U?$object_state_@V?$allocator@X@std@@@sam_custom_messages@@@mwboost@@QEAAXAEAV12@@Z
	?swap@?$shared_ptr@U?$robot_state_@V?$allocator@X@std@@@sam_custom_messages@@@mwboost@@QEAAXAEAV12@@Z
	?swap@?$shared_ptr@U?$user_prediction_@V?$allocator@X@std@@@sam_custom_messages@@@mwboost@@QEAAXAEAV12@@Z
	?swap@?$shared_ptr@V?$map@V?$basic_string@DU?$char_traits@D@std@@V?$allocator@D@2@@std@@V12@U?$less@V?$basic_string@DU?$char_traits@D@std@@V?$allocator@D@2@@std@@@2@V?$allocator@U?$pair@$$CBV?$basic_string@DU?$char_traits@D@std@@V?$allocator@D@2@@std@@V12@@std@@@2@@std@@@mwboost@@QEAAXAEAV12@@Z
	?swap@?$shared_ptr@VSubscriptionCallbackHelper@ros@@@mwboost@@QEAAXAEAV12@@Z
	?system_category_default_error_condition_win32@detail@system@mwboost@@YA?AVerror_condition@23@H@Z
	?system_category_message_win32@detail@system@mwboost@@YA?AV?$basic_string@DU?$char_traits@D@std@@V?$allocator@D@2@@std@@H@Z
	?system_category_message_win32@detail@system@mwboost@@YAPEBDHPEAD_K@Z
	?throwIfError@detail@data@matlab@@YAXHAEBV?$basic_string@DU?$char_traits@D@std@@V?$allocator@D@2@@std@@@Z
	?throw_exception_assert_compatibility@mwboost@@YAXAEBVexception@std@@@Z
	?toAscii@CharArray@data@matlab@@QEBA?AV?$basic_string@DU?$char_traits@D@std@@V?$allocator@D@2@@std@@XZ
	?try_lock@basic_timed_mutex@detail@mwboost@@QEAA_NXZ
	?unlock@?$basic_recursive_mutex_impl@Ubasic_timed_mutex@detail@mwboost@@@detail@mwboost@@QEAAXXZ
	?unlock@basic_timed_mutex@detail@mwboost@@QEAAXXZ
	?weak_release@sp_counted_base@detail@mwboost@@QEAAXXZ
	?what@?$ArrayException@VException@matlab@@$00@detail@data@matlab@@UEBAPEBDXZ
	?what@?$ArrayException@VException@matlab@@$00@detail@data@matlab@@W7EBAPEBDXZ
	?what@?$ArrayException@VException@matlab@@$01@detail@data@matlab@@UEBAPEBDXZ
	?what@?$ArrayException@VException@matlab@@$01@detail@data@matlab@@W7EBAPEBDXZ
	?what@?$ArrayException@VException@matlab@@$02@detail@data@matlab@@UEBAPEBDXZ
	?what@?$ArrayException@VException@matlab@@$02@detail@data@matlab@@W7EBAPEBDXZ
	?what@?$ArrayException@VException@matlab@@$04@detail@data@matlab@@UEBAPEBDXZ
	?what@?$ArrayException@VException@matlab@@$04@detail@data@matlab@@W7EBAPEBDXZ
	?what@?$ArrayException@VException@matlab@@$05@detail@data@matlab@@UEBAPEBDXZ
	?what@?$ArrayException@VException@matlab@@$05@detail@data@matlab@@W7EBAPEBDXZ
	?what@?$ArrayException@VException@matlab@@$06@detail@data@matlab@@UEBAPEBDXZ
	?what@?$ArrayException@VException@matlab@@$06@detail@data@matlab@@W7EBAPEBDXZ
	?what@?$ArrayException@VException@matlab@@$07@detail@data@matlab@@UEBAPEBDXZ
	?what@?$ArrayException@VException@matlab@@$07@detail@data@matlab@@W7EBAPEBDXZ
	?what@?$ArrayException@VException@matlab@@$08@detail@data@matlab@@UEBAPEBDXZ
	?what@?$ArrayException@VException@matlab@@$08@detail@data@matlab@@W7EBAPEBDXZ
	?what@?$ArrayException@VException@matlab@@$09@detail@data@matlab@@UEBAPEBDXZ
	?what@?$ArrayException@VException@matlab@@$09@detail@data@matlab@@W7EBAPEBDXZ
	?what@?$ArrayException@VException@matlab@@$0BA@@detail@data@matlab@@UEBAPEBDXZ
	?what@?$ArrayException@VException@matlab@@$0BA@@detail@data@matlab@@W7EBAPEBDXZ
	?what@?$ArrayException@VException@matlab@@$0BC@@detail@data@matlab@@UEBAPEBDXZ
	?what@?$ArrayException@VException@matlab@@$0BC@@detail@data@matlab@@W7EBAPEBDXZ
	?what@?$ArrayException@VException@matlab@@$0BD@@detail@data@matlab@@UEBAPEBDXZ
	?what@?$ArrayException@VException@matlab@@$0BD@@detail@data@matlab@@W7EBAPEBDXZ
	?what@?$ArrayException@VException@matlab@@$0BE@@detail@data@matlab@@UEBAPEBDXZ
	?what@?$ArrayException@VException@matlab@@$0BE@@detail@data@matlab@@W7EBAPEBDXZ
	?what@?$ArrayException@VException@matlab@@$0BF@@detail@data@matlab@@UEBAPEBDXZ
	?what@?$ArrayException@VException@matlab@@$0BF@@detail@data@matlab@@W7EBAPEBDXZ
	?what@?$ArrayException@VException@matlab@@$0BG@@detail@data@matlab@@UEBAPEBDXZ
	?what@?$ArrayException@VException@matlab@@$0BG@@detail@data@matlab@@W7EBAPEBDXZ
	?what@?$ArrayException@VException@matlab@@$0BH@@detail@data@matlab@@UEBAPEBDXZ
	?what@?$ArrayException@VException@matlab@@$0BH@@detail@data@matlab@@W7EBAPEBDXZ
	?what@?$ArrayException@VException@matlab@@$0BI@@detail@data@matlab@@UEBAPEBDXZ
	?what@?$ArrayException@VException@matlab@@$0BI@@detail@data@matlab@@W7EBAPEBDXZ
	?what@?$ArrayException@VException@matlab@@$0BJ@@detail@data@matlab@@UEBAPEBDXZ
	?what@?$ArrayException@VException@matlab@@$0BJ@@detail@data@matlab@@W7EBAPEBDXZ
	?what@?$ArrayException@VException@matlab@@$0BK@@detail@data@matlab@@UEBAPEBDXZ
	?what@?$ArrayException@VException@matlab@@$0BK@@detail@data@matlab@@W7EBAPEBDXZ
	?what@?$ArrayException@VException@matlab@@$0BL@@detail@data@matlab@@UEBAPEBDXZ
	?what@?$ArrayException@VException@matlab@@$0BL@@detail@data@matlab@@W7EBAPEBDXZ
	?what@?$ArrayException@VException@matlab@@$0BM@@detail@data@matlab@@UEBAPEBDXZ
	?what@?$ArrayException@VException@matlab@@$0BM@@detail@data@matlab@@W7EBAPEBDXZ
	?what@?$ArrayException@VException@matlab@@$0BN@@detail@data@matlab@@UEBAPEBDXZ
	?what@?$ArrayException@VException@matlab@@$0BN@@detail@data@matlab@@W7EBAPEBDXZ
	?what@?$ArrayException@VException@matlab@@$0N@@detail@data@matlab@@UEBAPEBDXZ
	?what@?$ArrayException@VException@matlab@@$0N@@detail@data@matlab@@W7EBAPEBDXZ
	?what@?$ArrayException@VException@matlab@@$0O@@detail@data@matlab@@UEBAPEBDXZ
	?what@?$ArrayException@VException@matlab@@$0O@@detail@data@matlab@@W7EBAPEBDXZ
	?what@?$ArrayException@VException@matlab@@$0P@@detail@data@matlab@@UEBAPEBDXZ
	?what@?$ArrayException@VException@matlab@@$0P@@detail@data@matlab@@W7EBAPEBDXZ
	?what@exception@std@@UEBAPEBDXZ
	?what@system_error@system@mwboost@@UEBAPEBDXZ
	__local_stdio_printf_options
	snprintf
